Archive member included to satisfy reference by file (symbol)

/usr/lib/gcc/arm-none-eabi/10.3.1/../../../arm-none-eabi/lib/thumb/v7-m/nofp/libg.a(lib_a-ctype_.o)
                              ./build/obj/chscanf.o (symbol from plugin) (_ctype_)
/usr/lib/gcc/arm-none-eabi/10.3.1/../../../arm-none-eabi/lib/thumb/v7-m/nofp/libg.a(lib_a-memcmp.o)
                              /tmp/ch.elf.PrlmSi.ltrans0.ltrans.o (memcmp)
/usr/lib/gcc/arm-none-eabi/10.3.1/../../../arm-none-eabi/lib/thumb/v7-m/nofp/libg.a(lib_a-memcpy.o)
                              /tmp/ch.elf.PrlmSi.ltrans0.ltrans.o (memcpy)
/usr/lib/gcc/arm-none-eabi/10.3.1/../../../arm-none-eabi/lib/thumb/v7-m/nofp/libg.a(lib_a-memset.o)
                              /tmp/ch.elf.PrlmSi.ltrans0.ltrans.o (memset)
/usr/lib/gcc/arm-none-eabi/10.3.1/../../../arm-none-eabi/lib/thumb/v7-m/nofp/libg.a(lib_a-strchr.o)
                              /tmp/ch.elf.PrlmSi.ltrans0.ltrans.o (strchr)
/usr/lib/gcc/arm-none-eabi/10.3.1/../../../arm-none-eabi/lib/thumb/v7-m/nofp/libg.a(lib_a-strcmp.o)
                              /tmp/ch.elf.PrlmSi.ltrans0.ltrans.o (strcmp)
/usr/lib/gcc/arm-none-eabi/10.3.1/../../../arm-none-eabi/lib/thumb/v7-m/nofp/libg.a(lib_a-strcpy.o)
                              /tmp/ch.elf.PrlmSi.ltrans1.ltrans.o (strcpy)
/usr/lib/gcc/arm-none-eabi/10.3.1/../../../arm-none-eabi/lib/thumb/v7-m/nofp/libg.a(lib_a-strlen-stub.o)
                              /tmp/ch.elf.PrlmSi.ltrans1.ltrans.o (strlen)
/usr/lib/gcc/arm-none-eabi/10.3.1/../../../arm-none-eabi/lib/thumb/v7-m/nofp/libg.a(lib_a-strncmp.o)
                              /tmp/ch.elf.PrlmSi.ltrans0.ltrans.o (strncmp)
/usr/lib/gcc/arm-none-eabi/10.3.1/../../../arm-none-eabi/lib/thumb/v7-m/nofp/libg.a(lib_a-strpbrk.o)
                              /tmp/ch.elf.PrlmSi.ltrans0.ltrans.o (strpbrk)
/usr/lib/gcc/arm-none-eabi/10.3.1/../../../arm-none-eabi/lib/thumb/v7-m/nofp/libg.a(lib_a-strspn.o)
                              /tmp/ch.elf.PrlmSi.ltrans0.ltrans.o (strspn)

Discarded input sections

 .data          0x0000000000000000        0x0 ./build/obj/crt0_v7m.o
 .bss           0x0000000000000000        0x0 ./build/obj/crt0_v7m.o
 .data          0x0000000000000000        0x0 ./build/obj/vectors.o
 .bss           0x0000000000000000        0x0 ./build/obj/vectors.o
 .data          0x0000000000000000        0x0 ./build/obj/chcoreasm.o
 .bss           0x0000000000000000        0x0 ./build/obj/chcoreasm.o
 .text          0x0000000000000000        0x0 /tmp/ch.elf.PrlmSi.ltrans0.ltrans.o
 .data          0x0000000000000000        0x0 /tmp/ch.elf.PrlmSi.ltrans0.ltrans.o
 .bss           0x0000000000000000        0x0 /tmp/ch.elf.PrlmSi.ltrans0.ltrans.o
 .text          0x0000000000000000        0x0 /tmp/ch.elf.PrlmSi.ltrans1.ltrans.o
 .data          0x0000000000000000        0x0 /tmp/ch.elf.PrlmSi.ltrans1.ltrans.o
 .bss           0x0000000000000000        0x0 /tmp/ch.elf.PrlmSi.ltrans1.ltrans.o
 .comment       0x0000000000000000       0x34 /tmp/ccT7arii.debug.temp.o
 .comment       0x0000000000000000       0x34 /tmp/cc7Dx78F.debug.temp.o
 .comment       0x0000000000000000       0x34 /tmp/ccpCv5ZY.debug.temp.o
 .debug_info    0x0000000000000000      0xba8 /tmp/ccZ7qY8O.debug.temp.o
 .debug_abbrev  0x0000000000000000      0x1be /tmp/ccZ7qY8O.debug.temp.o
 .debug_line    0x0000000000000000      0x1db /tmp/ccZ7qY8O.debug.temp.o
 .debug_str     0x0000000000000000      0x76f /tmp/ccZ7qY8O.debug.temp.o
 .comment       0x0000000000000000       0x34 /tmp/ccZ7qY8O.debug.temp.o
 .comment       0x0000000000000000       0x34 /tmp/ccKSzdhF.debug.temp.o
 .debug_info    0x0000000000000000      0x7b0 /tmp/cc2SA22a.debug.temp.o
 .debug_abbrev  0x0000000000000000      0x1b5 /tmp/cc2SA22a.debug.temp.o
 .debug_line    0x0000000000000000      0x193 /tmp/cc2SA22a.debug.temp.o
 .debug_str     0x0000000000000000      0x451 /tmp/cc2SA22a.debug.temp.o
 .comment       0x0000000000000000       0x34 /tmp/cc2SA22a.debug.temp.o
 .debug_info    0x0000000000000000      0x5ba /tmp/ccdRYPTw.debug.temp.o
 .debug_abbrev  0x0000000000000000      0x13e /tmp/ccdRYPTw.debug.temp.o
 .debug_line    0x0000000000000000       0xf3 /tmp/ccdRYPTw.debug.temp.o
 .debug_str     0x0000000000000000      0x51a /tmp/ccdRYPTw.debug.temp.o
 .comment       0x0000000000000000       0x34 /tmp/ccdRYPTw.debug.temp.o
 .comment       0x0000000000000000       0x34 /tmp/ccRslxbw.debug.temp.o
 .debug_info    0x0000000000000000      0x254 /tmp/ccq03z3c.debug.temp.o
 .debug_abbrev  0x0000000000000000      0x123 /tmp/ccq03z3c.debug.temp.o
 .debug_line    0x0000000000000000      0x107 /tmp/ccq03z3c.debug.temp.o
 .debug_str     0x0000000000000000      0x26e /tmp/ccq03z3c.debug.temp.o
 .comment       0x0000000000000000       0x34 /tmp/ccq03z3c.debug.temp.o
 .comment       0x0000000000000000       0x34 /tmp/ccvhYQeJ.debug.temp.o
 .comment       0x0000000000000000       0x34 /tmp/ccQl7Knk.debug.temp.o
 .comment       0x0000000000000000       0x34 /tmp/ccWtP7U3.debug.temp.o
 .comment       0x0000000000000000       0x34 /tmp/cchT0WqU.debug.temp.o
 .comment       0x0000000000000000       0x34 /tmp/ccrDuezY.debug.temp.o
 .comment       0x0000000000000000       0x34 /tmp/cceljwdK.debug.temp.o
 .debug_info    0x0000000000000000       0x79 /tmp/cc1PZFGO.debug.temp.o
 .debug_abbrev  0x0000000000000000       0x26 /tmp/cc1PZFGO.debug.temp.o
 .debug_line    0x0000000000000000       0x1e /tmp/cc1PZFGO.debug.temp.o
 .debug_str     0x0000000000000000      0x1e5 /tmp/cc1PZFGO.debug.temp.o
 .comment       0x0000000000000000       0x34 /tmp/cc1PZFGO.debug.temp.o
 .comment       0x0000000000000000       0x34 /tmp/ccZvYFDc.debug.temp.o
 .comment       0x0000000000000000       0x34 /tmp/ccqovuRI.debug.temp.o
 .comment       0x0000000000000000       0x34 /tmp/cczzinZ8.debug.temp.o
 .comment       0x0000000000000000       0x34 /tmp/ccDI0WpU.debug.temp.o
 .comment       0x0000000000000000       0x34 /tmp/ccaaNRgh.debug.temp.o
 .comment       0x0000000000000000       0x34 /tmp/ccSK4oVX.debug.temp.o
 .debug_info    0x0000000000000000       0x79 /tmp/ccrSKEYo.debug.temp.o
 .debug_abbrev  0x0000000000000000       0x26 /tmp/ccrSKEYo.debug.temp.o
 .debug_line    0x0000000000000000       0x1e /tmp/ccrSKEYo.debug.temp.o
 .debug_str     0x0000000000000000      0x1d4 /tmp/ccrSKEYo.debug.temp.o
 .comment       0x0000000000000000       0x34 /tmp/ccrSKEYo.debug.temp.o
 .comment       0x0000000000000000       0x34 /tmp/ccGoV6cT.debug.temp.o
 .comment       0x0000000000000000       0x34 /tmp/ccQRzAUa.debug.temp.o
 .debug_info    0x0000000000000000       0x79 /tmp/cc01gUbW.debug.temp.o
 .debug_abbrev  0x0000000000000000       0x26 /tmp/cc01gUbW.debug.temp.o
 .debug_line    0x0000000000000000       0x1e /tmp/cc01gUbW.debug.temp.o
 .debug_str     0x0000000000000000      0x1ce /tmp/cc01gUbW.debug.temp.o
 .comment       0x0000000000000000       0x34 /tmp/cc01gUbW.debug.temp.o
 .debug_info    0x0000000000000000       0x79 /tmp/ccf5FW4G.debug.temp.o
 .debug_abbrev  0x0000000000000000       0x26 /tmp/ccf5FW4G.debug.temp.o
 .debug_line    0x0000000000000000       0x1e /tmp/ccf5FW4G.debug.temp.o
 .debug_str     0x0000000000000000      0x1ce /tmp/ccf5FW4G.debug.temp.o
 .comment       0x0000000000000000       0x34 /tmp/ccf5FW4G.debug.temp.o
 .comment       0x0000000000000000       0x34 /tmp/cclWVjTc.debug.temp.o
 .comment       0x0000000000000000       0x34 /tmp/ccAWails.debug.temp.o
 .comment       0x0000000000000000       0x34 /tmp/ccjSX2Ob.debug.temp.o
 .comment       0x0000000000000000       0x34 /tmp/ccuA8I78.debug.temp.o
 .comment       0x0000000000000000       0x34 /tmp/cc83udby.debug.temp.o
 .comment       0x0000000000000000       0x34 /tmp/ccrhzjTR.debug.temp.o
 .comment       0x0000000000000000       0x34 /tmp/ccnnleDx.debug.temp.o
 .comment       0x0000000000000000       0x34 /tmp/ccznPcBe.debug.temp.o
 .comment       0x0000000000000000       0x34 /tmp/cc1ZRlzA.debug.temp.o
 .comment       0x0000000000000000       0x34 /tmp/ccbebI6x.debug.temp.o
 .comment       0x0000000000000000       0x34 /tmp/cc6XSnw1.debug.temp.o
 .comment       0x0000000000000000       0x34 /tmp/ccUGMPYj.debug.temp.o
 .debug_info    0x0000000000000000      0x39b /tmp/ccodWYrd.debug.temp.o
 .debug_abbrev  0x0000000000000000      0x142 /tmp/ccodWYrd.debug.temp.o
 .debug_line    0x0000000000000000       0xb2 /tmp/ccodWYrd.debug.temp.o
 .debug_str     0x0000000000000000      0x30e /tmp/ccodWYrd.debug.temp.o
 .comment       0x0000000000000000       0x34 /tmp/ccodWYrd.debug.temp.o
 .comment       0x0000000000000000       0x34 /tmp/ccB9BqGy.debug.temp.o
 .comment       0x0000000000000000       0x34 /tmp/cc16Z52C.debug.temp.o
 .comment       0x0000000000000000       0x34 /tmp/ccTQhJCg.debug.temp.o
 .comment       0x0000000000000000       0x34 /tmp/cc9QLLBY.debug.temp.o
 .comment       0x0000000000000000       0x34 /tmp/cclNzKC6.debug.temp.o
 .comment       0x0000000000000000       0x34 /tmp/cc4HGXfh.debug.temp.o
 .comment       0x0000000000000000       0x34 /tmp/cc17rajW.debug.temp.o
 .comment       0x0000000000000000       0x34 /tmp/ccRiTwwv.debug.temp.o
 .comment       0x0000000000000000       0x34 /tmp/cc5lXbZN.debug.temp.o
 .comment       0x0000000000000000       0x34 /tmp/ccuevhAF.debug.temp.o
 .comment       0x0000000000000000       0x34 /tmp/ccKQFrOn.debug.temp.o
 .debug_info    0x0000000000000000      0x4b9 /tmp/ccHTbylR.debug.temp.o
 .debug_abbrev  0x0000000000000000      0x19a /tmp/ccHTbylR.debug.temp.o
 .debug_line    0x0000000000000000      0x11f /tmp/ccHTbylR.debug.temp.o
 .debug_str     0x0000000000000000      0x311 /tmp/ccHTbylR.debug.temp.o
 .comment       0x0000000000000000       0x34 /tmp/ccHTbylR.debug.temp.o
 .debug_info    0x0000000000000000      0x342 /tmp/cczgHpWX.debug.temp.o
 .debug_abbrev  0x0000000000000000      0x104 /tmp/cczgHpWX.debug.temp.o
 .debug_line    0x0000000000000000       0xc0 /tmp/cczgHpWX.debug.temp.o
 .debug_str     0x0000000000000000      0x272 /tmp/cczgHpWX.debug.temp.o
 .comment       0x0000000000000000       0x34 /tmp/cczgHpWX.debug.temp.o
 .debug_info    0x0000000000000000      0x2a4 /tmp/cccyEIBw.debug.temp.o
 .debug_abbrev  0x0000000000000000      0x108 /tmp/cccyEIBw.debug.temp.o
 .debug_line    0x0000000000000000       0xc2 /tmp/cccyEIBw.debug.temp.o
 .debug_str     0x0000000000000000      0x24e /tmp/cccyEIBw.debug.temp.o
 .comment       0x0000000000000000       0x34 /tmp/cccyEIBw.debug.temp.o
 .debug_info    0x0000000000000000      0x3be /tmp/ccoLmP2B.debug.temp.o
 .debug_abbrev  0x0000000000000000      0x125 /tmp/ccoLmP2B.debug.temp.o
 .debug_line    0x0000000000000000       0xe9 /tmp/ccoLmP2B.debug.temp.o
 .debug_str     0x0000000000000000      0x2c3 /tmp/ccoLmP2B.debug.temp.o
 .comment       0x0000000000000000       0x34 /tmp/ccoLmP2B.debug.temp.o
 .comment       0x0000000000000000       0x34 /tmp/cc4LIRGU.debug.temp.o
 .comment       0x0000000000000000       0x34 /tmp/ccrDQ5b5.debug.temp.o
 .comment       0x0000000000000000       0x34 /tmp/ccLQr75t.debug.temp.o
 .comment       0x0000000000000000       0x34 /tmp/cco7DiDy.debug.temp.o
 .comment       0x0000000000000000       0x34 /tmp/ccrmSd52.debug.temp.o
 .comment       0x0000000000000000       0x34 /tmp/cckD8sv3.debug.temp.o
 .comment       0x0000000000000000       0x34 /tmp/cc0mLl4C.debug.temp.o
 .comment       0x0000000000000000       0x34 /tmp/ccndXnHi.debug.temp.o
 .comment       0x0000000000000000       0x34 /tmp/ccZVzhNQ.debug.temp.o
 .comment       0x0000000000000000       0x34 /tmp/ccpaeRfq.debug.temp.o
 .comment       0x0000000000000000       0x34 /tmp/cc6Ykh7P.debug.temp.o
 .comment       0x0000000000000000       0x34 /tmp/cc95wmnE.debug.temp.o
 .comment       0x0000000000000000       0x34 /tmp/cc2TUhek.debug.temp.o
 .comment       0x0000000000000000       0x34 /tmp/ccyC6ugg.debug.temp.o
 .comment       0x0000000000000000       0x34 /tmp/ccrWm1Fa.debug.temp.o
 .comment       0x0000000000000000       0x34 /tmp/cczbmG7z.debug.temp.o
 .comment       0x0000000000000000       0x34 /tmp/cc3JqDqz.debug.temp.o
 .comment       0x0000000000000000       0x34 /tmp/cc70tGEa.debug.temp.o
 .comment       0x0000000000000000       0x34 /tmp/ccBK22k5.debug.temp.o
 .comment       0x0000000000000000       0x34 /tmp/ccYOR9Q0.debug.temp.o
 .comment       0x0000000000000000       0x34 /tmp/cc1MHbQA.debug.temp.o
 .comment       0x0000000000000000       0x34 /tmp/ccnJMe5U.debug.temp.o
 .comment       0x0000000000000000       0x34 /tmp/ccPT081o.debug.temp.o
 .comment       0x0000000000000000       0x34 /tmp/cc5jkqLx.debug.temp.o
 .comment       0x0000000000000000       0x34 /tmp/ccJDBeky.debug.temp.o
 .comment       0x0000000000000000       0x34 /tmp/ccMW8lyt.debug.temp.o
 .comment       0x0000000000000000       0x34 /tmp/ccZHfhgS.debug.temp.o
 .comment       0x0000000000000000       0x34 /tmp/ccSwjcvb.debug.temp.o
 .comment       0x0000000000000000       0x34 /tmp/ccNSyn7G.debug.temp.o
 .comment       0x0000000000000000       0x34 /tmp/ccjzDEYI.debug.temp.o
 .comment       0x0000000000000000       0x34 /tmp/ccOZAkil.debug.temp.o
 .comment       0x0000000000000000       0x34 /tmp/cchujncb.debug.temp.o
 .text          0x0000000000000000        0x0 /usr/lib/gcc/arm-none-eabi/10.3.1/../../../arm-none-eabi/lib/thumb/v7-m/nofp/libg.a(lib_a-ctype_.o)
 .data          0x0000000000000000        0x0 /usr/lib/gcc/arm-none-eabi/10.3.1/../../../arm-none-eabi/lib/thumb/v7-m/nofp/libg.a(lib_a-ctype_.o)
 .bss           0x0000000000000000        0x0 /usr/lib/gcc/arm-none-eabi/10.3.1/../../../arm-none-eabi/lib/thumb/v7-m/nofp/libg.a(lib_a-ctype_.o)
 .rodata        0x0000000000000000      0x101 /usr/lib/gcc/arm-none-eabi/10.3.1/../../../arm-none-eabi/lib/thumb/v7-m/nofp/libg.a(lib_a-ctype_.o)
 .debug_info    0x0000000000000000       0xb8 /usr/lib/gcc/arm-none-eabi/10.3.1/../../../arm-none-eabi/lib/thumb/v7-m/nofp/libg.a(lib_a-ctype_.o)
 .debug_abbrev  0x0000000000000000       0x62 /usr/lib/gcc/arm-none-eabi/10.3.1/../../../arm-none-eabi/lib/thumb/v7-m/nofp/libg.a(lib_a-ctype_.o)
 .debug_aranges
                0x0000000000000000       0x18 /usr/lib/gcc/arm-none-eabi/10.3.1/../../../arm-none-eabi/lib/thumb/v7-m/nofp/libg.a(lib_a-ctype_.o)
 .debug_line    0x0000000000000000       0x5e /usr/lib/gcc/arm-none-eabi/10.3.1/../../../arm-none-eabi/lib/thumb/v7-m/nofp/libg.a(lib_a-ctype_.o)
 .debug_str     0x0000000000000000      0x197 /usr/lib/gcc/arm-none-eabi/10.3.1/../../../arm-none-eabi/lib/thumb/v7-m/nofp/libg.a(lib_a-ctype_.o)
 .comment       0x0000000000000000       0x34 /usr/lib/gcc/arm-none-eabi/10.3.1/../../../arm-none-eabi/lib/thumb/v7-m/nofp/libg.a(lib_a-ctype_.o)
 .ARM.attributes
                0x0000000000000000       0x2d /usr/lib/gcc/arm-none-eabi/10.3.1/../../../arm-none-eabi/lib/thumb/v7-m/nofp/libg.a(lib_a-ctype_.o)
 .data          0x0000000000000000        0x0 /usr/lib/gcc/arm-none-eabi/10.3.1/../../../arm-none-eabi/lib/thumb/v7-m/nofp/libg.a(lib_a-memcmp.o)
 .bss           0x0000000000000000        0x0 /usr/lib/gcc/arm-none-eabi/10.3.1/../../../arm-none-eabi/lib/thumb/v7-m/nofp/libg.a(lib_a-memcmp.o)
 .data          0x0000000000000000        0x0 /usr/lib/gcc/arm-none-eabi/10.3.1/../../../arm-none-eabi/lib/thumb/v7-m/nofp/libg.a(lib_a-memcpy.o)
 .bss           0x0000000000000000        0x0 /usr/lib/gcc/arm-none-eabi/10.3.1/../../../arm-none-eabi/lib/thumb/v7-m/nofp/libg.a(lib_a-memcpy.o)
 .data          0x0000000000000000        0x0 /usr/lib/gcc/arm-none-eabi/10.3.1/../../../arm-none-eabi/lib/thumb/v7-m/nofp/libg.a(lib_a-memset.o)
 .bss           0x0000000000000000        0x0 /usr/lib/gcc/arm-none-eabi/10.3.1/../../../arm-none-eabi/lib/thumb/v7-m/nofp/libg.a(lib_a-memset.o)
 .data          0x0000000000000000        0x0 /usr/lib/gcc/arm-none-eabi/10.3.1/../../../arm-none-eabi/lib/thumb/v7-m/nofp/libg.a(lib_a-strchr.o)
 .bss           0x0000000000000000        0x0 /usr/lib/gcc/arm-none-eabi/10.3.1/../../../arm-none-eabi/lib/thumb/v7-m/nofp/libg.a(lib_a-strchr.o)
 .data          0x0000000000000000        0x0 /usr/lib/gcc/arm-none-eabi/10.3.1/../../../arm-none-eabi/lib/thumb/v7-m/nofp/libg.a(lib_a-strcmp.o)
 .bss           0x0000000000000000        0x0 /usr/lib/gcc/arm-none-eabi/10.3.1/../../../arm-none-eabi/lib/thumb/v7-m/nofp/libg.a(lib_a-strcmp.o)
 .data          0x0000000000000000        0x0 /usr/lib/gcc/arm-none-eabi/10.3.1/../../../arm-none-eabi/lib/thumb/v7-m/nofp/libg.a(lib_a-strcpy.o)
 .bss           0x0000000000000000        0x0 /usr/lib/gcc/arm-none-eabi/10.3.1/../../../arm-none-eabi/lib/thumb/v7-m/nofp/libg.a(lib_a-strcpy.o)
 .data          0x0000000000000000        0x0 /usr/lib/gcc/arm-none-eabi/10.3.1/../../../arm-none-eabi/lib/thumb/v7-m/nofp/libg.a(lib_a-strlen-stub.o)
 .bss           0x0000000000000000        0x0 /usr/lib/gcc/arm-none-eabi/10.3.1/../../../arm-none-eabi/lib/thumb/v7-m/nofp/libg.a(lib_a-strlen-stub.o)
 .data          0x0000000000000000        0x0 /usr/lib/gcc/arm-none-eabi/10.3.1/../../../arm-none-eabi/lib/thumb/v7-m/nofp/libg.a(lib_a-strncmp.o)
 .bss           0x0000000000000000        0x0 /usr/lib/gcc/arm-none-eabi/10.3.1/../../../arm-none-eabi/lib/thumb/v7-m/nofp/libg.a(lib_a-strncmp.o)
 .data          0x0000000000000000        0x0 /usr/lib/gcc/arm-none-eabi/10.3.1/../../../arm-none-eabi/lib/thumb/v7-m/nofp/libg.a(lib_a-strpbrk.o)
 .bss           0x0000000000000000        0x0 /usr/lib/gcc/arm-none-eabi/10.3.1/../../../arm-none-eabi/lib/thumb/v7-m/nofp/libg.a(lib_a-strpbrk.o)
 .data          0x0000000000000000        0x0 /usr/lib/gcc/arm-none-eabi/10.3.1/../../../arm-none-eabi/lib/thumb/v7-m/nofp/libg.a(lib_a-strspn.o)
 .bss           0x0000000000000000        0x0 /usr/lib/gcc/arm-none-eabi/10.3.1/../../../arm-none-eabi/lib/thumb/v7-m/nofp/libg.a(lib_a-strspn.o)

Memory Configuration

Name             Origin             Length             Attributes
flash0           0x0000000008000000 0x0000000000100000 xr
flash1           0x0000000000000000 0x0000000000000000 xr
flash2           0x0000000000000000 0x0000000000000000 xr
flash3           0x0000000000000000 0x0000000000000000 xr
flash4           0x0000000000000000 0x0000000000000000 xr
flash5           0x0000000000000000 0x0000000000000000 xr
flash6           0x0000000000000000 0x0000000000000000 xr
flash7           0x0000000000000000 0x0000000000000000 xr
ram0             0x0000000020000000 0x0000000000018000 xw
ram1             0x0000000000000000 0x0000000000000000 xw
ram2             0x0000000000000000 0x0000000000000000 xw
ram3             0x0000000000000000 0x0000000000000000 xw
ram4             0x0000000000000000 0x0000000000000000 xw
ram5             0x0000000000000000 0x0000000000000000 xw
ram6             0x0000000000000000 0x0000000000000000 xw
ram7             0x0000000000000000 0x0000000000000000 xw
*default*        0x0000000000000000 0xffffffffffffffff

Linker script and memory map

LOAD ./build/obj/crt0_v7m.o
LOAD ./build/obj/vectors.o
LOAD ./build/obj/chcoreasm.o
LOAD ./build/obj/crt1.o
LOAD /tmp/ch.elf.PrlmSi.ltrans0.ltrans.o
LOAD /tmp/ch.elf.PrlmSi.ltrans1.ltrans.o
LOAD /tmp/ccT7arii.debug.temp.o
LOAD /tmp/cc7Dx78F.debug.temp.o
LOAD /tmp/ccpCv5ZY.debug.temp.o
LOAD /tmp/ccZ7qY8O.debug.temp.o
LOAD /tmp/ccKSzdhF.debug.temp.o
LOAD /tmp/cc2SA22a.debug.temp.o
LOAD /tmp/ccdRYPTw.debug.temp.o
LOAD /tmp/ccRslxbw.debug.temp.o
LOAD /tmp/ccq03z3c.debug.temp.o
LOAD /tmp/ccvhYQeJ.debug.temp.o
LOAD /tmp/ccQl7Knk.debug.temp.o
LOAD /tmp/ccWtP7U3.debug.temp.o
LOAD /tmp/cchT0WqU.debug.temp.o
LOAD /tmp/ccrDuezY.debug.temp.o
LOAD /tmp/cceljwdK.debug.temp.o
LOAD /tmp/cc1PZFGO.debug.temp.o
LOAD /tmp/ccZvYFDc.debug.temp.o
LOAD /tmp/ccqovuRI.debug.temp.o
LOAD /tmp/cczzinZ8.debug.temp.o
LOAD /tmp/ccDI0WpU.debug.temp.o
LOAD /tmp/ccaaNRgh.debug.temp.o
LOAD /tmp/ccSK4oVX.debug.temp.o
LOAD /tmp/ccrSKEYo.debug.temp.o
LOAD /tmp/ccGoV6cT.debug.temp.o
LOAD /tmp/ccQRzAUa.debug.temp.o
LOAD /tmp/cc01gUbW.debug.temp.o
LOAD /tmp/ccf5FW4G.debug.temp.o
LOAD /tmp/cclWVjTc.debug.temp.o
LOAD /tmp/ccAWails.debug.temp.o
LOAD /tmp/ccjSX2Ob.debug.temp.o
LOAD /tmp/ccuA8I78.debug.temp.o
LOAD /tmp/cc83udby.debug.temp.o
LOAD /tmp/ccrhzjTR.debug.temp.o
LOAD /tmp/ccnnleDx.debug.temp.o
LOAD /tmp/ccznPcBe.debug.temp.o
LOAD /tmp/cc1ZRlzA.debug.temp.o
LOAD /tmp/ccbebI6x.debug.temp.o
LOAD /tmp/cc6XSnw1.debug.temp.o
LOAD /tmp/ccUGMPYj.debug.temp.o
LOAD /tmp/ccodWYrd.debug.temp.o
LOAD /tmp/ccB9BqGy.debug.temp.o
LOAD /tmp/cc16Z52C.debug.temp.o
LOAD /tmp/ccTQhJCg.debug.temp.o
LOAD /tmp/cc9QLLBY.debug.temp.o
LOAD /tmp/cclNzKC6.debug.temp.o
LOAD /tmp/cc4HGXfh.debug.temp.o
LOAD /tmp/cc17rajW.debug.temp.o
LOAD /tmp/ccRiTwwv.debug.temp.o
LOAD /tmp/cc5lXbZN.debug.temp.o
LOAD /tmp/ccuevhAF.debug.temp.o
LOAD /tmp/ccKQFrOn.debug.temp.o
LOAD /tmp/ccHTbylR.debug.temp.o
LOAD /tmp/cczgHpWX.debug.temp.o
LOAD /tmp/cccyEIBw.debug.temp.o
LOAD /tmp/ccoLmP2B.debug.temp.o
LOAD /tmp/cc4LIRGU.debug.temp.o
LOAD /tmp/ccrDQ5b5.debug.temp.o
LOAD /tmp/ccLQr75t.debug.temp.o
LOAD /tmp/cco7DiDy.debug.temp.o
LOAD /tmp/ccrmSd52.debug.temp.o
LOAD /tmp/cckD8sv3.debug.temp.o
LOAD /tmp/cc0mLl4C.debug.temp.o
LOAD /tmp/ccndXnHi.debug.temp.o
LOAD /tmp/ccZVzhNQ.debug.temp.o
LOAD /tmp/ccpaeRfq.debug.temp.o
LOAD /tmp/cc6Ykh7P.debug.temp.o
LOAD /tmp/cc95wmnE.debug.temp.o
LOAD /tmp/cc2TUhek.debug.temp.o
LOAD /tmp/ccyC6ugg.debug.temp.o
LOAD /tmp/ccrWm1Fa.debug.temp.o
LOAD /tmp/cczbmG7z.debug.temp.o
LOAD /tmp/cc3JqDqz.debug.temp.o
LOAD /tmp/cc70tGEa.debug.temp.o
LOAD /tmp/ccBK22k5.debug.temp.o
LOAD /tmp/ccYOR9Q0.debug.temp.o
LOAD /tmp/cc1MHbQA.debug.temp.o
LOAD /tmp/ccnJMe5U.debug.temp.o
LOAD /tmp/ccPT081o.debug.temp.o
LOAD /tmp/cc5jkqLx.debug.temp.o
LOAD /tmp/ccJDBeky.debug.temp.o
LOAD /tmp/ccMW8lyt.debug.temp.o
LOAD /tmp/ccZHfhgS.debug.temp.o
LOAD /tmp/ccSwjcvb.debug.temp.o
LOAD /tmp/ccNSyn7G.debug.temp.o
LOAD /tmp/ccjzDEYI.debug.temp.o
LOAD /tmp/ccOZAkil.debug.temp.o
LOAD /tmp/cchujncb.debug.temp.o
LOAD ./build/obj/hal.o
LOAD ./build/obj/hal_st.o
LOAD ./build/obj/hal_buffered_serial.o
LOAD ./build/obj/hal_buffers.o
LOAD ./build/obj/hal_queues.o
LOAD ./build/obj/hal_flash.o
LOAD ./build/obj/hal_mmcsd.o
LOAD ./build/obj/hal_pal.o
LOAD ./build/obj/hal_sdc.o
LOAD ./build/obj/hal_serial_usb.o
LOAD ./build/obj/hal_usb.o
LOAD ./build/obj/nvic.o
LOAD ./build/obj/stm32_isr.o
LOAD ./build/obj/hal_lld.o
LOAD ./build/obj/hal_efl_lld.o
LOAD ./build/obj/stm32_dma.o
LOAD ./build/obj/hal_pal_lld.o
LOAD ./build/obj/hal_sdc_lld.o
LOAD ./build/obj/hal_st_lld.o
LOAD ./build/obj/hal_usb_lld.o
LOAD ./build/obj/board.o
LOAD ./build/obj/osal.o
LOAD ./build/obj/chsys.o
LOAD ./build/obj/chrfcu.o
LOAD ./build/obj/chdebug.o
LOAD ./build/obj/chtrace.o
LOAD ./build/obj/chvt.o
LOAD ./build/obj/chschd.o
LOAD ./build/obj/chinstances.o
LOAD ./build/obj/chthreads.o
LOAD ./build/obj/chtm.o
LOAD ./build/obj/chregistry.o
LOAD ./build/obj/chsem.o
LOAD ./build/obj/chmtx.o
LOAD ./build/obj/chcond.o
LOAD ./build/obj/chevents.o
LOAD ./build/obj/chmsg.o
LOAD ./build/obj/chdynamic.o
LOAD ./build/obj/chmemchecks.o
LOAD ./build/obj/chmboxes.o
LOAD ./build/obj/chmemcore.o
LOAD ./build/obj/chmemheaps.o
LOAD ./build/obj/chmempools.o
LOAD ./build/obj/chpipes.o
LOAD ./build/obj/chobjcaches.o
LOAD ./build/obj/chdelegates.o
LOAD ./build/obj/chfactory.o
LOAD ./build/obj/chcore.o
LOAD ./build/obj/usbcfg.o
LOAD ./build/obj/chprintf.o
LOAD ./build/obj/chscanf.o
LOAD ./build/obj/memstreams.o
LOAD ./build/obj/nullstreams.o
LOAD ./build/obj/bufstreams.o
LOAD ./build/obj/shell.o
LOAD ./build/obj/shell_cmd.o
LOAD ./build/obj/fatfs_diskio.o
LOAD ./build/obj/fatfs_syscall.o
LOAD ./build/obj/ff.o
LOAD ./build/obj/ffunicode.o
LOAD ./build/obj/ch_test.o
LOAD ./build/obj/ch_test_printf.o
LOAD ./build/obj/rt_test_root.o
LOAD ./build/obj/rt_test_sequence_001.o
LOAD ./build/obj/rt_test_sequence_002.o
LOAD ./build/obj/rt_test_sequence_003.o
LOAD ./build/obj/rt_test_sequence_004.o
LOAD ./build/obj/rt_test_sequence_005.o
LOAD ./build/obj/rt_test_sequence_006.o
LOAD ./build/obj/rt_test_sequence_007.o
LOAD ./build/obj/rt_test_sequence_008.o
LOAD ./build/obj/rt_test_sequence_009.o
LOAD ./build/obj/rt_test_sequence_010.o
LOAD ./build/obj/rt_test_sequence_011.o
LOAD ./build/obj/rt_test_sequence_012.o
LOAD ./build/obj/oslib_test_root.o
LOAD ./build/obj/oslib_test_sequence_001.o
LOAD ./build/obj/oslib_test_sequence_002.o
LOAD ./build/obj/oslib_test_sequence_003.o
LOAD ./build/obj/oslib_test_sequence_004.o
LOAD ./build/obj/oslib_test_sequence_005.o
LOAD ./build/obj/oslib_test_sequence_006.o
LOAD ./build/obj/oslib_test_sequence_007.o
LOAD ./build/obj/oslib_test_sequence_008.o
LOAD ./build/obj/oslib_test_sequence_009.o
LOAD ./build/obj/main.o

.mstack         0x0000000020000000      0x400
                0x0000000020000000                . = ALIGN (0x8)
                0x0000000020000000                __main_stack_base__ = .
                0x0000000020000400                . = (. + __main_stack_size__)
 *fill*         0x0000000020000000      0x400 
                0x0000000020000400                . = ALIGN (0x8)
                0x0000000020000400                __main_stack_end__ = .

.pstack         0x0000000020000400      0x400
                0x0000000020000400                . = ALIGN (0x8)
                0x0000000020000400                __process_stack_base__ = .
                0x0000000020000400                __main_thread_stack_base__ = .
                0x0000000020000800                . = (. + __process_stack_size__)
 *fill*         0x0000000020000400      0x400 
                0x0000000020000800                . = ALIGN (0x8)
                0x0000000020000800                __process_stack_end__ = .
                0x0000000020000800                __main_thread_stack_end__ = .

.vectors        0x0000000008000000      0x160
                0x0000000008000000                __textvectors_base__ = LOADADDR (.vectors)
                0x0000000008000000                __vectors_base__ = .
 *(.vectors)
 .vectors       0x0000000008000000      0x160 ./build/obj/vectors.o
                0x0000000008000000                _vectors
                0x0000000008000160                __vectors_end__ = .

.xtors          0x0000000008000160        0x0
                0x0000000008000160                __init_array_base__ = .
 *(SORT_BY_NAME(.init_array.*))
 *(.init_array)
                0x0000000008000160                __init_array_end__ = .
                0x0000000008000160                __fini_array_base__ = .
 *(.fini_array)
 *(SORT_BY_NAME(.fini_array.*))
                0x0000000008000160                __fini_array_end__ = .

.text           0x0000000008000160     0xffd8
                0x0000000008000160                __text_base__ = .
 *(.text)
 .text          0x0000000008000160       0xd8 ./build/obj/crt0_v7m.o
                0x0000000008000160                _crt0_entry
 .text          0x0000000008000238        0x8 ./build/obj/vectors.o
                0x0000000008000238                Reset_Handler
                0x000000000800023a                Vector58
                0x000000000800023a                VectorE8
                0x000000000800023a                Vector9C
                0x000000000800023a                VectorAC
                0x000000000800023a                DebugMon_Handler
                0x000000000800023a                Vector5C
                0x000000000800023a                Vector11C
                0x000000000800023a                HardFault_Handler
                0x000000000800023a                Vector8C
                0x000000000800023a                SysTick_Handler
                0x000000000800023a                VectorDC
                0x000000000800023a                PendSV_Handler
                0x000000000800023a                NMI_Handler
                0x000000000800023a                Vector110
                0x000000000800023a                VectorC8
                0x000000000800023a                Vector94
                0x000000000800023a                VectorA8
                0x000000000800023a                VectorB4
                0x000000000800023a                UsageFault_Handler
                0x000000000800023a                VectorEC
                0x000000000800023a                Vector40
                0x000000000800023a                VectorF8
                0x000000000800023a                Vector108
                0x000000000800023a                VectorBC
                0x000000000800023a                Vector150
                0x000000000800023a                Vector148
                0x000000000800023a                Vector118
                0x000000000800023a                Vector64
                0x000000000800023a                VectorCC
                0x000000000800023a                Vector54
                0x000000000800023a                Vector98
                0x000000000800023a                VectorD8
                0x000000000800023a                Vector138
                0x000000000800023a                Vector24
                0x000000000800023a                SecureFault_Handler
                0x000000000800023a                VectorD0
                0x000000000800023a                Vector140
                0x000000000800023a                VectorE4
                0x000000000800023a                VectorC0
                0x000000000800023a                Vector158
                0x000000000800023a                Vector134
                0x000000000800023a                VectorF0
                0x000000000800023a                Vector13C
                0x000000000800023a                Vector100
                0x000000000800023a                VectorE0
                0x000000000800023a                VectorF4
                0x000000000800023a                MemManage_Handler
                0x000000000800023a                VectorA0
                0x000000000800023a                VectorC4
                0x000000000800023a                Vector114
                0x000000000800023a                Vector60
                0x000000000800023a                Vector48
                0x000000000800023a                VectorD4
                0x000000000800023a                Vector4C
                0x000000000800023a                Vector144
                0x000000000800023a                Vector15C
                0x000000000800023a                Vector68
                0x000000000800023a                Vector88
                0x000000000800023a                Vector10C
                0x000000000800023a                Vector14C
                0x000000000800023a                BusFault_Handler
                0x000000000800023a                Vector50
                0x000000000800023a                Vector154
                0x000000000800023a                Vector44
                0x000000000800023a                Vector28
                0x000000000800023a                VectorB8
                0x000000000800023a                VectorFC
                0x000000000800023a                Vector34
                0x000000000800023a                VectorA4
                0x000000000800023a                Vector20
                0x000000000800023e                _unhandled_exception
 .text          0x0000000008000240       0x2a ./build/obj/chcoreasm.o
                0x0000000008000240                __port_switch
                0x0000000008000250                __port_thread_start
                0x0000000008000262                __port_switch_from_isr
                0x0000000008000266                __port_exit_from_isr
 *fill*         0x000000000800026a        0x2 
 .text          0x000000000800026c       0x68 /usr/lib/gcc/arm-none-eabi/10.3.1/../../../arm-none-eabi/lib/thumb/v7-m/nofp/libg.a(lib_a-memcmp.o)
                0x000000000800026c                memcmp
 .text          0x00000000080002d4       0xec /usr/lib/gcc/arm-none-eabi/10.3.1/../../../arm-none-eabi/lib/thumb/v7-m/nofp/libg.a(lib_a-memcpy.o)
                0x00000000080002d4                memcpy
 .text          0x00000000080003c0       0xa4 /usr/lib/gcc/arm-none-eabi/10.3.1/../../../arm-none-eabi/lib/thumb/v7-m/nofp/libg.a(lib_a-memset.o)
                0x00000000080003c0                memset
 .text          0x0000000008000464       0xcc /usr/lib/gcc/arm-none-eabi/10.3.1/../../../arm-none-eabi/lib/thumb/v7-m/nofp/libg.a(lib_a-strchr.o)
                0x0000000008000464                strchr
 .text          0x0000000008000530      0x1bc /usr/lib/gcc/arm-none-eabi/10.3.1/../../../arm-none-eabi/lib/thumb/v7-m/nofp/libg.a(lib_a-strcmp.o)
                0x0000000008000530                strcmp
 .text          0x00000000080006ec       0xbc /usr/lib/gcc/arm-none-eabi/10.3.1/../../../arm-none-eabi/lib/thumb/v7-m/nofp/libg.a(lib_a-strcpy.o)
                0x00000000080006ec                strcpy
 .text          0x00000000080007a8       0x5c /usr/lib/gcc/arm-none-eabi/10.3.1/../../../arm-none-eabi/lib/thumb/v7-m/nofp/libg.a(lib_a-strlen-stub.o)
                0x00000000080007a8                strlen
 .text          0x0000000008000804       0x7c /usr/lib/gcc/arm-none-eabi/10.3.1/../../../arm-none-eabi/lib/thumb/v7-m/nofp/libg.a(lib_a-strncmp.o)
                0x0000000008000804                strncmp
 .text          0x0000000008000880       0x38 /usr/lib/gcc/arm-none-eabi/10.3.1/../../../arm-none-eabi/lib/thumb/v7-m/nofp/libg.a(lib_a-strpbrk.o)
                0x0000000008000880                strpbrk
 .text          0x00000000080008b8       0x34 /usr/lib/gcc/arm-none-eabi/10.3.1/../../../arm-none-eabi/lib/thumb/v7-m/nofp/libg.a(lib_a-strspn.o)
                0x00000000080008b8                strspn
 *(.text.*)
 *fill*         0x00000000080008ec        0x4 
 .text._mmcsd_get_capacity
                0x00000000080008f0       0x48 /tmp/ch.elf.PrlmSi.ltrans0.ltrans.o
 *fill*         0x0000000008000938        0x8 
 .text.sdcSync  0x0000000008000940        0xc /tmp/ch.elf.PrlmSi.ltrans0.ltrans.o
                0x0000000008000940                sdcSync
 *fill*         0x000000000800094c        0x4 
 .text.sdcGetInfo
                0x0000000008000950       0x18 /tmp/ch.elf.PrlmSi.ltrans0.ltrans.o
                0x0000000008000950                sdcGetInfo
 *fill*         0x0000000008000968        0x8 
 .text._ctl.lto_priv.0
                0x0000000008000970        0x4 /tmp/ch.elf.PrlmSi.ltrans0.ltrans.o
                0x0000000008000970                _ctl.lto_priv.0
 *fill*         0x0000000008000974        0xc 
 .text.sduRequestsHook
                0x0000000008000980       0x48 /tmp/ch.elf.PrlmSi.ltrans0.ltrans.o
                0x0000000008000980                sduRequestsHook
 *fill*         0x00000000080009c8        0x8 
 .text.sduInterruptTransmitted
                0x00000000080009d0        0x4 /tmp/ch.elf.PrlmSi.ltrans0.ltrans.o
 *fill*         0x00000000080009d4        0xc 
 .text.set_address
                0x00000000080009e0       0x28 /tmp/ch.elf.PrlmSi.ltrans0.ltrans.o
 *fill*         0x0000000008000a08        0x8 
 .text.usbStartTransmitI
                0x0000000008000a10       0x94 /tmp/ch.elf.PrlmSi.ltrans0.ltrans.o
 *fill*         0x0000000008000aa4        0xc 
 .text.obnotify.lto_priv.0
                0x0000000008000ab0       0x50 /tmp/ch.elf.PrlmSi.ltrans0.ltrans.o
                0x0000000008000ab0                obnotify.lto_priv.0
 .text._usb_ep0out
                0x0000000008000b00       0x9c /tmp/ch.elf.PrlmSi.ltrans0.ltrans.o
                0x0000000008000b00                _usb_ep0out
 *fill*         0x0000000008000b9c        0x4 
 .text.sdc_lld_collect_errors
                0x0000000008000ba0       0x3c /tmp/ch.elf.PrlmSi.ltrans0.ltrans.o
 *fill*         0x0000000008000bdc        0x4 
 .text.sdc_lld_error_cleanup
                0x0000000008000be0       0x6c /tmp/ch.elf.PrlmSi.ltrans0.ltrans.o
 *fill*         0x0000000008000c4c        0x4 
 .text.sdc_lld_is_card_inserted
                0x0000000008000c50       0x14 /tmp/ch.elf.PrlmSi.ltrans0.ltrans.o
                0x0000000008000c50                sdc_lld_is_card_inserted
 *fill*         0x0000000008000c64        0xc 
 .text.__idle_thread.lto_priv.0
                0x0000000008000c70        0x4 /tmp/ch.elf.PrlmSi.ltrans0.ltrans.o
                0x0000000008000c70                __idle_thread.lto_priv.0
 *fill*         0x0000000008000c74        0xc 
 .text.chCoreAllocFromTop
                0x0000000008000c80       0x3c /tmp/ch.elf.PrlmSi.ltrans0.ltrans.o
                0x0000000008000c80                chCoreAllocFromTop
 *fill*         0x0000000008000cbc        0x4 
 .text.__ch_delegate_fn0
                0x0000000008000cc0        0xc /tmp/ch.elf.PrlmSi.ltrans0.ltrans.o
                0x0000000008000cc0                __ch_delegate_fn0
 *fill*         0x0000000008000ccc        0x4 
 .text.__ch_delegate_fn1
                0x0000000008000cd0       0x14 /tmp/ch.elf.PrlmSi.ltrans0.ltrans.o
                0x0000000008000cd0                __ch_delegate_fn1
 *fill*         0x0000000008000ce4        0xc 
 .text.__ch_delegate_fn2
                0x0000000008000cf0       0x1c /tmp/ch.elf.PrlmSi.ltrans0.ltrans.o
                0x0000000008000cf0                __ch_delegate_fn2
 *fill*         0x0000000008000d0c        0x4 
 .text.__ch_delegate_fn3
                0x0000000008000d10       0x20 /tmp/ch.elf.PrlmSi.ltrans0.ltrans.o
                0x0000000008000d10                __ch_delegate_fn3
 .text.__ch_delegate_fn4
                0x0000000008000d30       0x24 /tmp/ch.elf.PrlmSi.ltrans0.ltrans.o
                0x0000000008000d30                __ch_delegate_fn4
 *fill*         0x0000000008000d54        0xc 
 .text.chCoreAllocAlignedI.lto_priv.0
                0x0000000008000d60       0x20 /tmp/ch.elf.PrlmSi.ltrans0.ltrans.o
                0x0000000008000d60                chCoreAllocAlignedI.lto_priv.0
 .text.get_descriptor.lto_priv.0
                0x0000000008000d80       0x34 /tmp/ch.elf.PrlmSi.ltrans0.ltrans.o
                0x0000000008000d80                get_descriptor.lto_priv.0
 *fill*         0x0000000008000db4        0xc 
 .text.sof_handler.lto_priv.0
                0x0000000008000dc0       0x90 /tmp/ch.elf.PrlmSi.ltrans0.ltrans.o
                0x0000000008000dc0                sof_handler.lto_priv.0
 .text.test_stream_putchar
                0x0000000008000e50       0x18 /tmp/ch.elf.PrlmSi.ltrans0.ltrans.o
 *fill*         0x0000000008000e68        0x8 
 .text.rt_test_002_001_execute
                0x0000000008000e70      0x11c /tmp/ch.elf.PrlmSi.ltrans0.ltrans.o
 *fill*         0x0000000008000f8c        0x4 
 .text.rt_test_002_003_execute
                0x0000000008000f90       0x24 /tmp/ch.elf.PrlmSi.ltrans0.ltrans.o
 *fill*         0x0000000008000fb4        0xc 
 .text.rt_test_003_001_execute
                0x0000000008000fc0       0x1c /tmp/ch.elf.PrlmSi.ltrans0.ltrans.o
 *fill*         0x0000000008000fdc        0x4 
 .text.rt_test_003_002_execute
                0x0000000008000fe0        0xc /tmp/ch.elf.PrlmSi.ltrans0.ltrans.o
 *fill*         0x0000000008000fec        0x4 
 .text.thread   0x0000000008000ff0       0x1c /tmp/ch.elf.PrlmSi.ltrans0.ltrans.o
 *fill*         0x000000000800100c        0x4 
 .text.rt_test_006_001_setup
                0x0000000008001010        0xc /tmp/ch.elf.PrlmSi.ltrans0.ltrans.o
 *fill*         0x000000000800101c        0x4 
 .text.rt_test_007_001_setup
                0x0000000008001020       0x10 /tmp/ch.elf.PrlmSi.ltrans0.ltrans.o
 .text.rt_test_007_005_setup
                0x0000000008001030       0x10 /tmp/ch.elf.PrlmSi.ltrans0.ltrans.o
 .text.rt_test_007_002_setup
                0x0000000008001040       0x10 /tmp/ch.elf.PrlmSi.ltrans0.ltrans.o
 .text.rt_test_007_003_setup
                0x0000000008001050       0x10 /tmp/ch.elf.PrlmSi.ltrans0.ltrans.o
 .text.rt_test_007_004_setup
                0x0000000008001060       0x10 /tmp/ch.elf.PrlmSi.ltrans0.ltrans.o
 .text.rt_test_008_005_setup
                0x0000000008001070       0x10 /tmp/ch.elf.PrlmSi.ltrans0.ltrans.o
 .text.rt_test_008_001_setup
                0x0000000008001080       0x10 /tmp/ch.elf.PrlmSi.ltrans0.ltrans.o
 .text.rt_test_008_004_setup
                0x0000000008001090       0x1c /tmp/ch.elf.PrlmSi.ltrans0.ltrans.o
 *fill*         0x00000000080010ac        0x4 
 .text.rt_test_008_008_setup
                0x00000000080010b0       0x1c /tmp/ch.elf.PrlmSi.ltrans0.ltrans.o
 *fill*         0x00000000080010cc        0x4 
 .text.rt_test_008_007_setup
                0x00000000080010d0       0x1c /tmp/ch.elf.PrlmSi.ltrans0.ltrans.o
 *fill*         0x00000000080010ec        0x4 
 .text.rt_test_008_009_setup
                0x00000000080010f0       0x28 /tmp/ch.elf.PrlmSi.ltrans0.ltrans.o
 *fill*         0x0000000008001118        0x8 
 .text.h1       0x0000000008001120       0x1c /tmp/ch.elf.PrlmSi.ltrans0.ltrans.o
 *fill*         0x000000000800113c        0x4 
 .text.h2       0x0000000008001140       0x1c /tmp/ch.elf.PrlmSi.ltrans0.ltrans.o
 *fill*         0x000000000800115c        0x4 
 .text.h3       0x0000000008001160       0x1c /tmp/ch.elf.PrlmSi.ltrans0.ltrans.o
 *fill*         0x000000000800117c        0x4 
 .text.rt_test_010_001_execute
                0x0000000008001180       0xfc /tmp/ch.elf.PrlmSi.ltrans0.ltrans.o
 *fill*         0x000000000800127c        0x4 
 .text.rt_test_010_002_setup
                0x0000000008001280       0x18 /tmp/ch.elf.PrlmSi.ltrans0.ltrans.o
 *fill*         0x0000000008001298        0x8 
 .text.rt_test_010_003_setup
                0x00000000080012a0       0x18 /tmp/ch.elf.PrlmSi.ltrans0.ltrans.o
 *fill*         0x00000000080012b8        0x8 
 .text.rt_test_010_004_setup
                0x00000000080012c0       0x18 /tmp/ch.elf.PrlmSi.ltrans0.ltrans.o
 *fill*         0x00000000080012d8        0x8 
 .text.rt_test_010_005_setup
                0x00000000080012e0       0x18 /tmp/ch.elf.PrlmSi.ltrans0.ltrans.o
 *fill*         0x00000000080012f8        0x8 
 .text.rt_test_010_006_setup
                0x0000000008001300       0x18 /tmp/ch.elf.PrlmSi.ltrans0.ltrans.o
 *fill*         0x0000000008001318        0x8 
 .text.rt_test_010_007_setup
                0x0000000008001320       0x28 /tmp/ch.elf.PrlmSi.ltrans0.ltrans.o
 *fill*         0x0000000008001348        0x8 
 .text.dyn_thread1
                0x0000000008001350       0x1c /tmp/ch.elf.PrlmSi.ltrans0.ltrans.o
                0x0000000008001350                dyn_thread1.lto_priv.0
 *fill*         0x000000000800136c        0x4 
 .text.rt_test_011_001_setup
                0x0000000008001370       0x3c /tmp/ch.elf.PrlmSi.ltrans0.ltrans.o
 *fill*         0x00000000080013ac        0x4 
 .text.rt_test_011_002_setup
                0x00000000080013b0       0x18 /tmp/ch.elf.PrlmSi.ltrans0.ltrans.o
 *fill*         0x00000000080013c8        0x8 
 .text.tmo.lto_priv.0
                0x00000000080013d0        0x4 /tmp/ch.elf.PrlmSi.ltrans0.ltrans.o
                0x00000000080013d0                tmo.lto_priv.0
 *fill*         0x00000000080013d4        0xc 
 .text.__sch_wakeup.lto_priv.0
                0x00000000080013e0       0x70 /tmp/ch.elf.PrlmSi.ltrans0.ltrans.o
                0x00000000080013e0                __sch_wakeup.lto_priv.0
 .text.chMtxUnlockS
                0x0000000008001450       0x68 /tmp/ch.elf.PrlmSi.ltrans0.ltrans.o
 *fill*         0x00000000080014b8        0x8 
 .text.sdc_lld_wait_transaction_end
                0x00000000080014c0       0xbc /tmp/ch.elf.PrlmSi.ltrans0.ltrans.o
 *fill*         0x000000000800157c        0x4 
 .text.chThdYield
                0x0000000008001580       0x50 /tmp/ch.elf.PrlmSi.ltrans0.ltrans.o
 .text.chMsgSend
                0x00000000080015d0       0x70 /tmp/ch.elf.PrlmSi.ltrans0.ltrans.o
 .text.msg_thread1
                0x0000000008001640       0x28 /tmp/ch.elf.PrlmSi.ltrans0.ltrans.o
 *fill*         0x0000000008001668        0x8 
 .text.thread1.lto_priv.1
                0x0000000008001670       0x70 /tmp/ch.elf.PrlmSi.ltrans0.ltrans.o
 .text.bmk_thread3.lto_priv.0
                0x00000000080016e0       0x88 /tmp/ch.elf.PrlmSi.ltrans0.ltrans.o
                0x00000000080016e0                bmk_thread3.lto_priv.0
 *fill*         0x0000000008001768        0x8 
 .text.bmk_thread4.lto_priv.0
                0x0000000008001770       0x3c /tmp/ch.elf.PrlmSi.ltrans0.ltrans.o
                0x0000000008001770                bmk_thread4.lto_priv.0
 *fill*         0x00000000080017ac        0x4 
 .text.bmk_thread7.lto_priv.0
                0x00000000080017b0       0x6c /tmp/ch.elf.PrlmSi.ltrans0.ltrans.o
                0x00000000080017b0                bmk_thread7.lto_priv.0
 *fill*         0x000000000800181c        0x4 
 .text.bmk_thread8.lto_priv.0
                0x0000000008001820       0x74 /tmp/ch.elf.PrlmSi.ltrans0.ltrans.o
                0x0000000008001820                bmk_thread8.lto_priv.0
 *fill*         0x0000000008001894        0xc 
 .text.parse_arguments
                0x00000000080018a0       0x54 /tmp/ch.elf.PrlmSi.ltrans0.ltrans.o
 *fill*         0x00000000080018f4        0xc 
 .text.test_rt  0x0000000008001900       0x1c /tmp/ch.elf.PrlmSi.ltrans0.ltrans.o
 *fill*         0x000000000800191c        0x4 
 .text.test_oslib
                0x0000000008001920       0x1c /tmp/ch.elf.PrlmSi.ltrans0.ltrans.o
 *fill*         0x000000000800193c        0x4 
 .text.rt_test_007_001_teardown
                0x0000000008001940        0xc /tmp/ch.elf.PrlmSi.ltrans0.ltrans.o
 *fill*         0x000000000800194c        0x4 
 .text.__cpu_init
                0x0000000008001950        0x4 /tmp/ch.elf.PrlmSi.ltrans0.ltrans.o
                0x0000000008001950                __cpu_init
 *fill*         0x0000000008001954        0xc 
 .text.__late_init
                0x0000000008001960        0x4 /tmp/ch.elf.PrlmSi.ltrans0.ltrans.o
                0x0000000008001960                __late_init
 *fill*         0x0000000008001964        0xc 
 .text.__default_exit
                0x0000000008001970        0x4 /tmp/ch.elf.PrlmSi.ltrans0.ltrans.o
                0x0000000008001970                __default_exit
 *fill*         0x0000000008001974        0xc 
 .text.__init_ram_areas
                0x0000000008001980       0x6c /tmp/ch.elf.PrlmSi.ltrans0.ltrans.o
                0x0000000008001980                __init_ram_areas
 *fill*         0x00000000080019ec        0x4 
 .text.sdc_lld_sync
                0x00000000080019f0        0x4 /tmp/ch.elf.PrlmSi.ltrans0.ltrans.o
                0x00000000080019f0                sdc_lld_sync
                0x00000000080019f0                sdc_lld_is_write_protected
 *fill*         0x00000000080019f4        0xc 
 .text.usbStartReceiveI
                0x0000000008001a00       0x5c /tmp/ch.elf.PrlmSi.ltrans0.ltrans.o
                0x0000000008001a00                usbStartReceiveI
 *fill*         0x0000000008001a5c        0x4 
 .text.ibnotify.lto_priv.0
                0x0000000008001a60       0x50 /tmp/ch.elf.PrlmSi.ltrans0.ltrans.o
                0x0000000008001a60                ibnotify.lto_priv.0
 .text._usb_ep0setup
                0x0000000008001ab0      0x3f4 /tmp/ch.elf.PrlmSi.ltrans0.ltrans.o
                0x0000000008001ab0                _usb_ep0setup
 *fill*         0x0000000008001ea4        0xc 
 .text._usb_ep0in
                0x0000000008001eb0       0xc8 /tmp/ch.elf.PrlmSi.ltrans0.ltrans.o
                0x0000000008001eb0                _usb_ep0in
 *fill*         0x0000000008001f78        0x8 
 .text.Vector6C
                0x0000000008001f80       0x70 /tmp/ch.elf.PrlmSi.ltrans0.ltrans.o
                0x0000000008001f80                Vector6C
 .text.Vector70
                0x0000000008001ff0       0x74 /tmp/ch.elf.PrlmSi.ltrans0.ltrans.o
                0x0000000008001ff0                Vector70
 *fill*         0x0000000008002064        0xc 
 .text.Vector74
                0x0000000008002070       0x74 /tmp/ch.elf.PrlmSi.ltrans0.ltrans.o
                0x0000000008002070                Vector74
 *fill*         0x00000000080020e4        0xc 
 .text.Vector78
                0x00000000080020f0       0x74 /tmp/ch.elf.PrlmSi.ltrans0.ltrans.o
                0x00000000080020f0                Vector78
 *fill*         0x0000000008002164        0xc 
 .text.Vector7C
                0x0000000008002170       0x74 /tmp/ch.elf.PrlmSi.ltrans0.ltrans.o
                0x0000000008002170                Vector7C
 *fill*         0x00000000080021e4        0xc 
 .text.Vector80
                0x00000000080021f0       0x74 /tmp/ch.elf.PrlmSi.ltrans0.ltrans.o
                0x00000000080021f0                Vector80
 *fill*         0x0000000008002264        0xc 
 .text.Vector84
                0x0000000008002270       0x78 /tmp/ch.elf.PrlmSi.ltrans0.ltrans.o
                0x0000000008002270                Vector84
 *fill*         0x00000000080022e8        0x8 
 .text.Vector120
                0x00000000080022f0       0x70 /tmp/ch.elf.PrlmSi.ltrans0.ltrans.o
                0x00000000080022f0                Vector120
 .text.Vector124
                0x0000000008002360       0x74 /tmp/ch.elf.PrlmSi.ltrans0.ltrans.o
                0x0000000008002360                Vector124
 *fill*         0x00000000080023d4        0xc 
 .text.Vector128
                0x00000000080023e0       0x74 /tmp/ch.elf.PrlmSi.ltrans0.ltrans.o
                0x00000000080023e0                Vector128
 *fill*         0x0000000008002454        0xc 
 .text.Vector12C
                0x0000000008002460       0x74 /tmp/ch.elf.PrlmSi.ltrans0.ltrans.o
                0x0000000008002460                Vector12C
 *fill*         0x00000000080024d4        0xc 
 .text.Vector130
                0x00000000080024e0       0x74 /tmp/ch.elf.PrlmSi.ltrans0.ltrans.o
                0x00000000080024e0                Vector130
 *fill*         0x0000000008002554        0xc 
 .text.Vector104
                0x0000000008002560       0x90 /tmp/ch.elf.PrlmSi.ltrans0.ltrans.o
                0x0000000008002560                Vector104
 .text.VectorB0
                0x00000000080025f0      0x188 /tmp/ch.elf.PrlmSi.ltrans0.ltrans.o
                0x00000000080025f0                VectorB0
 *fill*         0x0000000008002778        0x8 
 .text.usb_lld_init_endpoint
                0x0000000008002780       0xb8 /tmp/ch.elf.PrlmSi.ltrans0.ltrans.o
                0x0000000008002780                usb_lld_init_endpoint
 *fill*         0x0000000008002838        0x8 
 .text.Vector90
                0x0000000008002840      0x368 /tmp/ch.elf.PrlmSi.ltrans0.ltrans.o
                0x0000000008002840                Vector90
 *fill*         0x0000000008002ba8        0x8 
 .text.__early_init
                0x0000000008002bb0       0x7c /tmp/ch.elf.PrlmSi.ltrans0.ltrans.o
                0x0000000008002bb0                __early_init
 *fill*         0x0000000008002c2c        0x4 
 .text.chVTDoResetI
                0x0000000008002c30       0xac /tmp/ch.elf.PrlmSi.ltrans0.ltrans.o
                0x0000000008002c30                chVTDoResetI
 *fill*         0x0000000008002cdc        0x4 
 .text.chSchGoSleepTimeoutS
                0x0000000008002ce0       0x70 /tmp/ch.elf.PrlmSi.ltrans0.ltrans.o
                0x0000000008002ce0                chSchGoSleepTimeoutS
 .text.obqPutTimeout
                0x0000000008002d50       0xa4 /tmp/ch.elf.PrlmSi.ltrans0.ltrans.o
 *fill*         0x0000000008002df4        0xc 
 .text._put.lto_priv.0
                0x0000000008002e00        0xc /tmp/ch.elf.PrlmSi.ltrans0.ltrans.o
                0x0000000008002e00                _put.lto_priv.0
 *fill*         0x0000000008002e0c        0x4 
 .text._putt.lto_priv.0
                0x0000000008002e10        0x8 /tmp/ch.elf.PrlmSi.ltrans0.ltrans.o
                0x0000000008002e10                _putt.lto_priv.0
 *fill*         0x0000000008002e18        0x8 
 .text.ibqGetTimeout
                0x0000000008002e20       0xa4 /tmp/ch.elf.PrlmSi.ltrans0.ltrans.o
 *fill*         0x0000000008002ec4        0xc 
 .text._get.lto_priv.0
                0x0000000008002ed0        0xc /tmp/ch.elf.PrlmSi.ltrans0.ltrans.o
                0x0000000008002ed0                _get.lto_priv.0
 *fill*         0x0000000008002edc        0x4 
 .text._gett.lto_priv.0
                0x0000000008002ee0        0x8 /tmp/ch.elf.PrlmSi.ltrans0.ltrans.o
                0x0000000008002ee0                _gett.lto_priv.0
 *fill*         0x0000000008002ee8        0x8 
 .text.ibqReadTimeout
                0x0000000008002ef0      0x134 /tmp/ch.elf.PrlmSi.ltrans0.ltrans.o
 *fill*         0x0000000008003024        0xc 
 .text._read.lto_priv.0
                0x0000000008003030        0xc /tmp/ch.elf.PrlmSi.ltrans0.ltrans.o
                0x0000000008003030                _read.lto_priv.0
 *fill*         0x000000000800303c        0x4 
 .text._readt.lto_priv.0
                0x0000000008003040        0x8 /tmp/ch.elf.PrlmSi.ltrans0.ltrans.o
                0x0000000008003040                _readt.lto_priv.0
 *fill*         0x0000000008003048        0x8 
 .text.obqWriteTimeout
                0x0000000008003050      0x10c /tmp/ch.elf.PrlmSi.ltrans0.ltrans.o
 *fill*         0x000000000800315c        0x4 
 .text._write.lto_priv.0
                0x0000000008003160        0xc /tmp/ch.elf.PrlmSi.ltrans0.ltrans.o
                0x0000000008003160                _write.lto_priv.0
 *fill*         0x000000000800316c        0x4 
 .text._writet.lto_priv.0
                0x0000000008003170        0x8 /tmp/ch.elf.PrlmSi.ltrans0.ltrans.o
                0x0000000008003170                _writet.lto_priv.0
 *fill*         0x0000000008003178        0x8 
 .text._sdc_wait_for_transfer_state
                0x0000000008003180       0x6c /tmp/ch.elf.PrlmSi.ltrans0.ltrans.o
                0x0000000008003180                _sdc_wait_for_transfer_state
 *fill*         0x00000000080031ec        0x4 
 .text.sdcDisconnect
                0x00000000080031f0       0x3c /tmp/ch.elf.PrlmSi.ltrans0.ltrans.o
                0x00000000080031f0                sdcDisconnect
 *fill*         0x000000000800322c        0x4 
 .text.sdc_lld_read_special
                0x0000000008003230       0xfc /tmp/ch.elf.PrlmSi.ltrans0.ltrans.o
 *fill*         0x000000000800332c        0x4 
 .text.sdc_lld_read_aligned
                0x0000000008003330       0xec /tmp/ch.elf.PrlmSi.ltrans0.ltrans.o
 *fill*         0x000000000800341c        0x4 
 .text.sdcRead  0x0000000008003420       0x78 /tmp/ch.elf.PrlmSi.ltrans0.ltrans.o
                0x0000000008003420                sdcRead
 *fill*         0x0000000008003498        0x8 
 .text.sdc_lld_write_aligned
                0x00000000080034a0       0xfc /tmp/ch.elf.PrlmSi.ltrans0.ltrans.o
 *fill*         0x000000000800359c        0x4 
 .text.sdcWrite
                0x00000000080035a0       0x78 /tmp/ch.elf.PrlmSi.ltrans0.ltrans.o
                0x00000000080035a0                sdcWrite
 *fill*         0x0000000008003618        0x8 
 .text.rt_test_004_001_execute
                0x0000000008003620       0xa8 /tmp/ch.elf.PrlmSi.ltrans0.ltrans.o
 *fill*         0x00000000080036c8        0x8 
 .text.rt_test_005_001_execute
                0x00000000080036d0       0xf0 /tmp/ch.elf.PrlmSi.ltrans0.ltrans.o
 .text.rt_test_010_006_execute
                0x00000000080037c0       0xf0 /tmp/ch.elf.PrlmSi.ltrans0.ltrans.o
 .text.msg_loop_test
                0x00000000080038b0       0xb8 /tmp/ch.elf.PrlmSi.ltrans0.ltrans.o
 *fill*         0x0000000008003968        0x8 
 .text.sdcConnect
                0x0000000008003970      0x4e4 /tmp/ch.elf.PrlmSi.ltrans0.ltrans.o
                0x0000000008003970                sdcConnect
 *fill*         0x0000000008003e54        0xc 
 .text.__sch_reschedule_ahead.lto_priv.0
                0x0000000008003e60       0x40 /tmp/ch.elf.PrlmSi.ltrans0.ltrans.o
                0x0000000008003e60                chSchDoPreemption
                0x0000000008003e60                __sch_reschedule_ahead.lto_priv.0
 .text.vtcb     0x0000000008003ea0       0x50 /tmp/ch.elf.PrlmSi.ltrans0.ltrans.o
 .text.rt_test_002_002_execute
                0x0000000008003ef0      0x134 /tmp/ch.elf.PrlmSi.ltrans0.ltrans.o
 *fill*         0x0000000008004024        0xc 
 .text.rt_test_005_003_execute
                0x0000000008004030       0xbc /tmp/ch.elf.PrlmSi.ltrans0.ltrans.o
 *fill*         0x00000000080040ec        0x4 
 .text.rt_test_005_004_execute
                0x00000000080040f0      0x108 /tmp/ch.elf.PrlmSi.ltrans0.ltrans.o
 *fill*         0x00000000080041f8        0x8 
 .text.thread1.lto_priv.0
                0x0000000008004200       0x6c /tmp/ch.elf.PrlmSi.ltrans0.ltrans.o
 *fill*         0x000000000800426c        0x4 
 .text.thread2  0x0000000008004270       0x70 /tmp/ch.elf.PrlmSi.ltrans0.ltrans.o
 .text.evt_thread3
                0x00000000080042e0       0x80 /tmp/ch.elf.PrlmSi.ltrans0.ltrans.o
 .text.chSchWakeupS
                0x0000000008004360       0x5c /tmp/ch.elf.PrlmSi.ltrans0.ltrans.o
                0x0000000008004360                chSchWakeupS
 *fill*         0x00000000080043bc        0x4 
 .text.rt_test_007_001_execute
                0x00000000080043c0      0x110 /tmp/ch.elf.PrlmSi.ltrans0.ltrans.o
 .text.thread3  0x00000000080044d0       0x7c /tmp/ch.elf.PrlmSi.ltrans0.ltrans.o
 *fill*         0x000000000800454c        0x4 
 .text.bmk_thread1
                0x0000000008004550       0x6c /tmp/ch.elf.PrlmSi.ltrans0.ltrans.o
 *fill*         0x00000000080045bc        0x4 
 .text.chThdCreateSuspendedI
                0x00000000080045c0       0x8c /tmp/ch.elf.PrlmSi.ltrans0.ltrans.o
                0x00000000080045c0                chThdCreateSuspendedI
 *fill*         0x000000000800464c        0x4 
 .text.chThdCreateStatic
                0x0000000008004650       0x8c /tmp/ch.elf.PrlmSi.ltrans0.ltrans.o
                0x0000000008004650                chThdCreateStatic
 *fill*         0x00000000080046dc        0x4 
 .text.rt_test_007_005_execute
                0x00000000080046e0       0x88 /tmp/ch.elf.PrlmSi.ltrans0.ltrans.o
 *fill*         0x0000000008004768        0x8 
 .text.chThdExit
                0x0000000008004770       0x88 /tmp/ch.elf.PrlmSi.ltrans0.ltrans.o
                0x0000000008004770                chThdExit
 *fill*         0x00000000080047f8        0x8 
 .text.chThdExitS
                0x0000000008004800       0x80 /tmp/ch.elf.PrlmSi.ltrans0.ltrans.o
                0x0000000008004800                chThdExitS
 .text.chTMStartMeasurementX
                0x0000000008004880        0xc /tmp/ch.elf.PrlmSi.ltrans0.ltrans.o
                0x0000000008004880                chTMStartMeasurementX
 *fill*         0x000000000800488c        0x4 
 .text.chTMStopMeasurementX
                0x0000000008004890       0x44 /tmp/ch.elf.PrlmSi.ltrans0.ltrans.o
                0x0000000008004890                chTMStopMeasurementX
 *fill*         0x00000000080048d4        0xc 
 .text.chSemSignalI
                0x00000000080048e0       0x38 /tmp/ch.elf.PrlmSi.ltrans0.ltrans.o
                0x00000000080048e0                chSemSignalI
 *fill*         0x0000000008004918        0x8 
 .text.thread4  0x0000000008004920       0x34 /tmp/ch.elf.PrlmSi.ltrans0.ltrans.o
 *fill*         0x0000000008004954        0xc 
 .text.rt_test_007_006_execute
                0x0000000008004960      0x214 /tmp/ch.elf.PrlmSi.ltrans0.ltrans.o
 *fill*         0x0000000008004b74        0xc 
 .text.chMtxLockS
                0x0000000008004b80       0xe0 /tmp/ch.elf.PrlmSi.ltrans0.ltrans.o
                0x0000000008004b80                chMtxLockS
 .text.thread4B
                0x0000000008004c60       0x4c /tmp/ch.elf.PrlmSi.ltrans0.ltrans.o
 *fill*         0x0000000008004cac        0x4 
 .text.chMtxUnlock
                0x0000000008004cb0       0x84 /tmp/ch.elf.PrlmSi.ltrans0.ltrans.o
                0x0000000008004cb0                chMtxUnlock
 *fill*         0x0000000008004d34        0xc 
 .text.thread1.lto_priv.2
                0x0000000008004d40       0x3c /tmp/ch.elf.PrlmSi.ltrans0.ltrans.o
 *fill*         0x0000000008004d7c        0x4 
 .text.thread4A
                0x0000000008004d80       0x74 /tmp/ch.elf.PrlmSi.ltrans0.ltrans.o
 *fill*         0x0000000008004df4        0xc 
 .text.thread6  0x0000000008004e00       0xa0 /tmp/ch.elf.PrlmSi.ltrans0.ltrans.o
 .text.thread8  0x0000000008004ea0       0xc0 /tmp/ch.elf.PrlmSi.ltrans0.ltrans.o
 .text.thread9  0x0000000008004f60       0x3c /tmp/ch.elf.PrlmSi.ltrans0.ltrans.o
 *fill*         0x0000000008004f9c        0x4 
 .text.rt_test_008_004_execute
                0x0000000008004fa0      0x11c /tmp/ch.elf.PrlmSi.ltrans0.ltrans.o
 *fill*         0x00000000080050bc        0x4 
 .text.rt_test_008_005_execute
                0x00000000080050c0      0x190 /tmp/ch.elf.PrlmSi.ltrans0.ltrans.o
 .text.chEvtBroadcastFlagsI
                0x0000000008005250       0x74 /tmp/ch.elf.PrlmSi.ltrans0.ltrans.o
                0x0000000008005250                chEvtBroadcastFlagsI
 *fill*         0x00000000080052c4        0xc 
 .text.sduDataTransmitted
                0x00000000080052d0       0xc8 /tmp/ch.elf.PrlmSi.ltrans0.ltrans.o
 *fill*         0x0000000008005398        0x8 
 .text.sduDataReceived
                0x00000000080053a0       0x88 /tmp/ch.elf.PrlmSi.ltrans0.ltrans.o
 *fill*         0x0000000008005428        0x8 
 .text.usb_event.lto_priv.0
                0x0000000008005430      0x1d4 /tmp/ch.elf.PrlmSi.ltrans0.ltrans.o
                0x0000000008005430                usb_event.lto_priv.0
 *fill*         0x0000000008005604        0xc 
 .text.evt_thread7
                0x0000000008005610       0x6c /tmp/ch.elf.PrlmSi.ltrans0.ltrans.o
 *fill*         0x000000000800567c        0x4 
 .text.chMBPostTimeout
                0x0000000008005680       0xc8 /tmp/ch.elf.PrlmSi.ltrans0.ltrans.o
                0x0000000008005680                chMBPostTimeout
 *fill*         0x0000000008005748        0x8 
 .text.chMBFetchTimeoutS
                0x0000000008005750       0xa4 /tmp/ch.elf.PrlmSi.ltrans0.ltrans.o
                0x0000000008005750                chMBFetchTimeoutS
 *fill*         0x00000000080057f4        0xc 
 .text.chHeapAllocAligned
                0x0000000008005800       0xf0 /tmp/ch.elf.PrlmSi.ltrans0.ltrans.o
                0x0000000008005800                chHeapAllocAligned
 .text.chThdCreateFromHeap
                0x00000000080058f0       0x4c /tmp/ch.elf.PrlmSi.ltrans0.ltrans.o
                0x00000000080058f0                chThdCreateFromHeap
 *fill*         0x000000000800593c        0x4 
 .text.chHeapFree
                0x0000000008005940       0xa0 /tmp/ch.elf.PrlmSi.ltrans0.ltrans.o
                0x0000000008005940                chHeapFree
 .text.chThdRelease.part.0
                0x00000000080059e0       0x3c /tmp/ch.elf.PrlmSi.ltrans0.ltrans.o
                0x00000000080059e0                chThdRelease.part.0
 *fill*         0x0000000008005a1c        0x4 
 .text.chThdWait
                0x0000000008005a20       0x74 /tmp/ch.elf.PrlmSi.ltrans0.ltrans.o
                0x0000000008005a20                chThdWait
 *fill*         0x0000000008005a94        0xc 
 .text.rt_test_006_001_execute
                0x0000000008005aa0      0x114 /tmp/ch.elf.PrlmSi.ltrans0.ltrans.o
 *fill*         0x0000000008005bb4        0xc 
 .text.rt_test_007_005_teardown
                0x0000000008005bc0       0x24 /tmp/ch.elf.PrlmSi.ltrans0.ltrans.o
 *fill*         0x0000000008005be4        0xc 
 .text.rt_test_007_006_teardown
                0x0000000008005bf0       0x24 /tmp/ch.elf.PrlmSi.ltrans0.ltrans.o
 *fill*         0x0000000008005c14        0xc 
 .text.rt_test_008_004_teardown
                0x0000000008005c20       0x24 /tmp/ch.elf.PrlmSi.ltrans0.ltrans.o
 *fill*         0x0000000008005c44        0xc 
 .text.rt_test_010_007_execute
                0x0000000008005c50      0x1f4 /tmp/ch.elf.PrlmSi.ltrans0.ltrans.o
 *fill*         0x0000000008005e44        0xc 
 .text.chHeapStatus
                0x0000000008005e50       0x68 /tmp/ch.elf.PrlmSi.ltrans0.ltrans.o
                0x0000000008005e50                chHeapStatus
 *fill*         0x0000000008005eb8        0x8 
 .text.chGuardedPoolAllocTimeout
                0x0000000008005ec0       0x68 /tmp/ch.elf.PrlmSi.ltrans0.ltrans.o
                0x0000000008005ec0                chGuardedPoolAllocTimeout
 *fill*         0x0000000008005f28        0x8 
 .text.chDelegateCallVeneer
                0x0000000008005f30       0x24 /tmp/ch.elf.PrlmSi.ltrans0.ltrans.o
                0x0000000008005f30                chDelegateCallVeneer
 *fill*         0x0000000008005f54        0xc 
 .text.dyn_create_object_heap.lto_priv.0
                0x0000000008005f60       0x64 /tmp/ch.elf.PrlmSi.ltrans0.ltrans.o
                0x0000000008005f60                dyn_create_object_heap.lto_priv.0
 *fill*         0x0000000008005fc4        0xc 
 .text.SVC_Handler
                0x0000000008005fd0       0x14 /tmp/ch.elf.PrlmSi.ltrans0.ltrans.o
                0x0000000008005fd0                SVC_Handler
 *fill*         0x0000000008005fe4        0xc 
 .text.chprintf
                0x0000000008005ff0      0x440 /tmp/ch.elf.PrlmSi.ltrans0.ltrans.o
                0x0000000008005ff0                chprintf
 .text.shellThread
                0x0000000008006430      0x254 /tmp/ch.elf.PrlmSi.ltrans0.ltrans.o
                0x0000000008006430                shellThread
 *fill*         0x0000000008006684        0xc 
 .text.cmd_exit
                0x0000000008006690       0x34 /tmp/ch.elf.PrlmSi.ltrans0.ltrans.o
 *fill*         0x00000000080066c4        0xc 
 .text.cmd_info
                0x00000000080066d0       0xbc /tmp/ch.elf.PrlmSi.ltrans0.ltrans.o
 *fill*         0x000000000800678c        0x4 
 .text.cmd_echo
                0x0000000008006790       0x20 /tmp/ch.elf.PrlmSi.ltrans0.ltrans.o
 .text.cmd_systime
                0x00000000080067b0       0x28 /tmp/ch.elf.PrlmSi.ltrans0.ltrans.o
 *fill*         0x00000000080067d8        0x8 
 .text.cmd_mem  0x00000000080067e0       0xa8 /tmp/ch.elf.PrlmSi.ltrans0.ltrans.o
 *fill*         0x0000000008006888        0x8 
 .text.cmd_threads
                0x0000000008006890       0xe8 /tmp/ch.elf.PrlmSi.ltrans0.ltrans.o
 *fill*         0x0000000008006978        0x8 
 .text.cmd_test
                0x0000000008006980       0x8c /tmp/ch.elf.PrlmSi.ltrans0.ltrans.o
 *fill*         0x0000000008006a0c        0x4 
 .text.put_utf.lto_priv.0
                0x0000000008006a10       0x54 /tmp/ch.elf.PrlmSi.ltrans0.ltrans.o
                0x0000000008006a10                put_utf.lto_priv.0
 *fill*         0x0000000008006a64        0xc 
 .text.get_ldnumber.lto_priv.0
                0x0000000008006a70       0x34 /tmp/ch.elf.PrlmSi.ltrans0.ltrans.o
                0x0000000008006a70                get_ldnumber.lto_priv.0
 *fill*         0x0000000008006aa4        0xc 
 .text.move_window.part.0.lto_priv.0
                0x0000000008006ab0       0x98 /tmp/ch.elf.PrlmSi.ltrans0.ltrans.o
                0x0000000008006ab0                move_window.part.0.lto_priv.0
 *fill*         0x0000000008006b48        0x8 
 .text.get_fat.lto_priv.0
                0x0000000008006b50      0x140 /tmp/ch.elf.PrlmSi.ltrans0.ltrans.o
                0x0000000008006b50                get_fat.lto_priv.0
 .text.check_fs.lto_priv.0
                0x0000000008006c90       0xf4 /tmp/ch.elf.PrlmSi.ltrans0.ltrans.o
                0x0000000008006c90                check_fs.lto_priv.0
 *fill*         0x0000000008006d84        0xc 
 .text.ff_wtoupper.part.0
                0x0000000008006d90       0xb4 /tmp/ch.elf.PrlmSi.ltrans0.ltrans.o
                0x0000000008006d90                ff_wtoupper.part.0
 *fill*         0x0000000008006e44        0xc 
 .text.__test_assert
                0x0000000008006e50       0x18 /tmp/ch.elf.PrlmSi.ltrans0.ltrans.o
                0x0000000008006e50                __test_assert
 *fill*         0x0000000008006e68        0x8 
 .text.__test_assert_sequence
                0x0000000008006e70       0x3c /tmp/ch.elf.PrlmSi.ltrans0.ltrans.o
                0x0000000008006e70                __test_assert_sequence
 *fill*         0x0000000008006eac        0x4 
 .text.rt_test_005_002_execute
                0x0000000008006eb0      0x24c /tmp/ch.elf.PrlmSi.ltrans0.ltrans.o
 *fill*         0x00000000080070fc        0x4 
 .text.rt_test_007_002_execute
                0x0000000008007100      0x1b4 /tmp/ch.elf.PrlmSi.ltrans0.ltrans.o
 *fill*         0x00000000080072b4        0xc 
 .text.rt_test_007_004_execute
                0x00000000080072c0      0x100 /tmp/ch.elf.PrlmSi.ltrans0.ltrans.o
 .text.rt_test_008_001_execute
                0x00000000080073c0      0x130 /tmp/ch.elf.PrlmSi.ltrans0.ltrans.o
 .text.rt_test_008_007_execute
                0x00000000080074f0      0x1e4 /tmp/ch.elf.PrlmSi.ltrans0.ltrans.o
 *fill*         0x00000000080076d4        0xc 
 .text.rt_test_008_008_execute
                0x00000000080076e0      0x150 /tmp/ch.elf.PrlmSi.ltrans0.ltrans.o
 .text.rt_test_008_009_execute
                0x0000000008007830      0x108 /tmp/ch.elf.PrlmSi.ltrans0.ltrans.o
 *fill*         0x0000000008007938        0x8 
 .text.rt_test_009_001_execute
                0x0000000008007940       0xe8 /tmp/ch.elf.PrlmSi.ltrans0.ltrans.o
 *fill*         0x0000000008007a28        0x8 
 .text.rt_test_010_002_execute
                0x0000000008007a30       0x4c /tmp/ch.elf.PrlmSi.ltrans0.ltrans.o
 *fill*         0x0000000008007a7c        0x4 
 .text.rt_test_011_001_execute
                0x0000000008007a80      0x210 /tmp/ch.elf.PrlmSi.ltrans0.ltrans.o
 .text.rt_test_011_002_execute
                0x0000000008007c90      0x1b0 /tmp/ch.elf.PrlmSi.ltrans0.ltrans.o
 .text.test_printf
                0x0000000008007e40      0x450 /tmp/ch.elf.PrlmSi.ltrans0.ltrans.o
                0x0000000008007e40                test_printf
 .text.rt_test_001_001_execute.lto_priv.0
                0x0000000008008290       0xdc /tmp/ch.elf.PrlmSi.ltrans0.ltrans.o
                0x0000000008008290                rt_test_001_001_execute.lto_priv.0
 *fill*         0x000000000800836c        0x4 
 .text.rt_test_001_002_execute
                0x0000000008008370       0xc4 /tmp/ch.elf.PrlmSi.ltrans0.ltrans.o
 *fill*         0x0000000008008434        0xc 
 .text.rt_test_001_003_execute
                0x0000000008008440      0x3b0 /tmp/ch.elf.PrlmSi.ltrans0.ltrans.o
 .text.rt_test_012_001_execute
                0x00000000080087f0       0xb0 /tmp/ch.elf.PrlmSi.ltrans0.ltrans.o
 .text.rt_test_012_002_execute
                0x00000000080088a0       0xb0 /tmp/ch.elf.PrlmSi.ltrans0.ltrans.o
 .text.rt_test_012_003_execute
                0x0000000008008950      0x128 /tmp/ch.elf.PrlmSi.ltrans0.ltrans.o
 *fill*         0x0000000008008a78        0x8 
 .text.test_wait_tick
                0x0000000008008a80       0x6c /tmp/ch.elf.PrlmSi.ltrans0.ltrans.o
                0x0000000008008a80                test_wait_tick
 *fill*         0x0000000008008aec        0x4 
 .text.rt_test_007_003_execute
                0x0000000008008af0      0x1c0 /tmp/ch.elf.PrlmSi.ltrans0.ltrans.o
 .text.rt_test_010_003_execute
                0x0000000008008cb0      0x11c /tmp/ch.elf.PrlmSi.ltrans0.ltrans.o
 *fill*         0x0000000008008dcc        0x4 
 .text.rt_test_010_004_execute
                0x0000000008008dd0      0x180 /tmp/ch.elf.PrlmSi.ltrans0.ltrans.o
 .text.rt_test_010_005_execute
                0x0000000008008f50      0x174 /tmp/ch.elf.PrlmSi.ltrans0.ltrans.o
 *fill*         0x00000000080090c4        0xc 
 .text.rt_test_012_007_setup.lto_priv.0
                0x00000000080090d0       0x10 /tmp/ch.elf.PrlmSi.ltrans1.ltrans.o
                0x00000000080090d0                rt_test_012_007_setup.lto_priv.0
 .text.rt_test_012_010_setup.lto_priv.0
                0x00000000080090e0       0x10 /tmp/ch.elf.PrlmSi.ltrans1.ltrans.o
                0x00000000080090e0                rt_test_012_010_setup.lto_priv.0
 .text.rt_test_012_011_setup.lto_priv.0
                0x00000000080090f0       0x10 /tmp/ch.elf.PrlmSi.ltrans1.ltrans.o
                0x00000000080090f0                rt_test_012_011_setup.lto_priv.0
 .text.oslib_test_002_003_setup.lto_priv.0
                0x0000000008009100       0x34 /tmp/ch.elf.PrlmSi.ltrans1.ltrans.o
                0x0000000008009100                oslib_test_002_003_setup.lto_priv.0
 *fill*         0x0000000008009134        0xc 
 .text.oslib_test_002_001_setup
                0x0000000008009140       0x34 /tmp/ch.elf.PrlmSi.ltrans1.ltrans.o
                0x0000000008009140                oslib_test_002_001_setup.lto_priv.0
 *fill*         0x0000000008009174        0xc 
 .text.oslib_test_002_002_setup
                0x0000000008009180       0x34 /tmp/ch.elf.PrlmSi.ltrans1.ltrans.o
                0x0000000008009180                oslib_test_002_002_setup.lto_priv.0
 *fill*         0x00000000080091b4        0xc 
 .text.oslib_test_003_001_setup.lto_priv.0
                0x00000000080091c0       0x48 /tmp/ch.elf.PrlmSi.ltrans1.ltrans.o
                0x00000000080091c0                oslib_test_003_001_setup.lto_priv.0
 *fill*         0x0000000008009208        0x8 
 .text.oslib_test_003_002_setup.lto_priv.0
                0x0000000008009210       0x48 /tmp/ch.elf.PrlmSi.ltrans1.ltrans.o
                0x0000000008009210                oslib_test_003_002_setup.lto_priv.0
 *fill*         0x0000000008009258        0x8 
 .text.dis_func0
                0x0000000008009260       0x20 /tmp/ch.elf.PrlmSi.ltrans1.ltrans.o
 .text.dis_func1
                0x0000000008009280       0x18 /tmp/ch.elf.PrlmSi.ltrans1.ltrans.o
 *fill*         0x0000000008009298        0x8 
 .text.dis_func2
                0x00000000080092a0       0x2c /tmp/ch.elf.PrlmSi.ltrans1.ltrans.o
 *fill*         0x00000000080092cc        0x4 
 .text.dis_func3
                0x00000000080092d0       0x38 /tmp/ch.elf.PrlmSi.ltrans1.ltrans.o
 *fill*         0x0000000008009308        0x8 
 .text.dis_func4
                0x0000000008009310       0x48 /tmp/ch.elf.PrlmSi.ltrans1.ltrans.o
 *fill*         0x0000000008009358        0x8 
 .text.dis_func_end
                0x0000000008009360       0x28 /tmp/ch.elf.PrlmSi.ltrans1.ltrans.o
 *fill*         0x0000000008009388        0x8 
 .text.obj_write
                0x0000000008009390       0x20 /tmp/ch.elf.PrlmSi.ltrans1.ltrans.o
 .text.null_provider
                0x00000000080093b0        0x4 /tmp/ch.elf.PrlmSi.ltrans1.ltrans.o
 *fill*         0x00000000080093b4        0xc 
 .text.oslib_test_007_001_setup.lto_priv.0
                0x00000000080093c0       0x14 /tmp/ch.elf.PrlmSi.ltrans1.ltrans.o
                0x00000000080093c0                oslib_test_007_001_setup.lto_priv.0
 *fill*         0x00000000080093d4        0xc 
 .text.oslib_test_007_001_execute.lto_priv.0
                0x00000000080093e0      0x198 /tmp/ch.elf.PrlmSi.ltrans1.ltrans.o
                0x00000000080093e0                oslib_test_007_001_execute.lto_priv.0
 *fill*         0x0000000008009578        0x8 
 .text.oslib_test_007_003_setup.lto_priv.0
                0x0000000008009580       0x1c /tmp/ch.elf.PrlmSi.ltrans1.ltrans.o
                0x0000000008009580                oslib_test_007_003_setup.lto_priv.0
 *fill*         0x000000000800959c        0x4 
 .text.oslib_test_007_002_setup
                0x00000000080095a0       0x1c /tmp/ch.elf.PrlmSi.ltrans1.ltrans.o
                0x00000000080095a0                oslib_test_007_002_setup.lto_priv.0
 *fill*         0x00000000080095bc        0x4 
 .text.oslib_test_008_001_setup.lto_priv.0
                0x00000000080095c0       0x3c /tmp/ch.elf.PrlmSi.ltrans1.ltrans.o
                0x00000000080095c0                oslib_test_008_001_setup.lto_priv.0
 *fill*         0x00000000080095fc        0x4 
 .text.Thread1.lto_priv.2
                0x0000000008009600       0x48 /tmp/ch.elf.PrlmSi.ltrans1.ltrans.o
 *fill*         0x0000000008009648        0x8 
 .text.init_alloc_info.isra.0
                0x0000000008009650       0x20 /tmp/ch.elf.PrlmSi.ltrans1.ltrans.o
 .text.rt_test_012_012_execute.lto_priv.0
                0x0000000008009670      0x14c /tmp/ch.elf.PrlmSi.ltrans1.ltrans.o
                0x0000000008009670                rt_test_012_012_execute.lto_priv.0
 *fill*         0x00000000080097bc        0x4 
 .text.oslib_test_001_002_execute.lto_priv.0
                0x00000000080097c0       0xc4 /tmp/ch.elf.PrlmSi.ltrans1.ltrans.o
                0x00000000080097c0                oslib_test_001_002_execute.lto_priv.0
 *fill*         0x0000000008009884        0xc 
 .text.oslib_test_001_003_execute.lto_priv.0
                0x0000000008009890      0x1ec /tmp/ch.elf.PrlmSi.ltrans1.ltrans.o
                0x0000000008009890                oslib_test_001_003_execute.lto_priv.0
 *fill*         0x0000000008009a7c        0x4 
 .text.rt_test_012_004_execute.lto_priv.0
                0x0000000008009a80      0x110 /tmp/ch.elf.PrlmSi.ltrans1.ltrans.o
                0x0000000008009a80                rt_test_012_004_execute.lto_priv.0
 .text.rt_test_012_005_execute.lto_priv.0
                0x0000000008009b90       0xb4 /tmp/ch.elf.PrlmSi.ltrans1.ltrans.o
                0x0000000008009b90                rt_test_012_005_execute.lto_priv.0
 *fill*         0x0000000008009c44        0xc 
 .text.rt_test_012_008_execute.lto_priv.0
                0x0000000008009c50      0x140 /tmp/ch.elf.PrlmSi.ltrans1.ltrans.o
                0x0000000008009c50                rt_test_012_008_execute.lto_priv.0
 .text.ShellHandler
                0x0000000008009d90       0x20 /tmp/ch.elf.PrlmSi.ltrans1.ltrans.o
 .text.rt_test_012_006_execute.lto_priv.0
                0x0000000008009db0       0xd4 /tmp/ch.elf.PrlmSi.ltrans1.ltrans.o
                0x0000000008009db0                rt_test_012_006_execute.lto_priv.0
 *fill*         0x0000000008009e84        0xc 
 .text.rt_test_012_010_execute.lto_priv.0
                0x0000000008009e90      0x1f8 /tmp/ch.elf.PrlmSi.ltrans1.ltrans.o
                0x0000000008009e90                rt_test_012_010_execute.lto_priv.0
 *fill*         0x000000000800a088        0x8 
 .text.chCacheGetObject.constprop.0
                0x000000000800a090      0x168 /tmp/ch.elf.PrlmSi.ltrans1.ltrans.o
 *fill*         0x000000000800a1f8        0x8 
 .text.rt_test_012_011_execute.lto_priv.0
                0x000000000800a200       0xdc /tmp/ch.elf.PrlmSi.ltrans1.ltrans.o
                0x000000000800a200                rt_test_012_011_execute.lto_priv.0
 *fill*         0x000000000800a2dc        0x4 
 .text.chHeapIntegrityCheck.constprop.0
                0x000000000800a2e0       0x68 /tmp/ch.elf.PrlmSi.ltrans1.ltrans.o
 *fill*         0x000000000800a348        0x8 
 .text.chFactoryReleaseSemaphore.isra.0
                0x000000000800a350       0x64 /tmp/ch.elf.PrlmSi.ltrans1.ltrans.o
 *fill*         0x000000000800a3b4        0xc 
 .text.chFactoryReleaseObject.isra.0
                0x000000000800a3c0       0x64 /tmp/ch.elf.PrlmSi.ltrans1.ltrans.o
 *fill*         0x000000000800a424        0xc 
 .text.oslib_test_001_001_execute
                0x000000000800a430        0x4 /tmp/ch.elf.PrlmSi.ltrans1.ltrans.o
                0x000000000800a430                oslib_test_001_001_execute.lto_priv.0
 *fill*         0x000000000800a434        0xc 
 .text.chMBPostAheadI.constprop.0
                0x000000000800a440       0x70 /tmp/ch.elf.PrlmSi.ltrans1.ltrans.o
 .text.oslib_test_002_001_teardown
                0x000000000800a4b0       0xb0 /tmp/ch.elf.PrlmSi.ltrans1.ltrans.o
                0x000000000800a4b0                oslib_test_002_001_teardown.lto_priv.0
 .text.oslib_test_002_002_teardown
                0x000000000800a560       0xb0 /tmp/ch.elf.PrlmSi.ltrans1.ltrans.o
                0x000000000800a560                oslib_test_002_002_teardown.lto_priv.0
 .text.oslib_test_002_003_teardown.lto_priv.0
                0x000000000800a610       0xb0 /tmp/ch.elf.PrlmSi.ltrans1.ltrans.o
                0x000000000800a610                oslib_test_002_003_teardown.lto_priv.0
 .text.obj_read
                0x000000000800a6c0       0xc8 /tmp/ch.elf.PrlmSi.ltrans1.ltrans.o
 *fill*         0x000000000800a788        0x8 
 .text.chMBPostAheadTimeout.constprop.0
                0x000000000800a790       0xbc /tmp/ch.elf.PrlmSi.ltrans1.ltrans.o
 *fill*         0x000000000800a84c        0x4 
 .text.oslib_test_006_001_execute.lto_priv.0
                0x000000000800a850      0x604 /tmp/ch.elf.PrlmSi.ltrans1.ltrans.o
                0x000000000800a850                oslib_test_006_001_execute.lto_priv.0
 *fill*         0x000000000800ae54        0xc 
 .text.oslib_test_002_001_execute.lto_priv.0
                0x000000000800ae60      0x3d4 /tmp/ch.elf.PrlmSi.ltrans1.ltrans.o
                0x000000000800ae60                oslib_test_002_001_execute.lto_priv.0
 *fill*         0x000000000800b234        0xc 
 .text.oslib_test_002_002_execute.lto_priv.0
                0x000000000800b240      0x40c /tmp/ch.elf.PrlmSi.ltrans1.ltrans.o
                0x000000000800b240                oslib_test_002_002_execute.lto_priv.0
 *fill*         0x000000000800b64c        0x4 
 .text.oslib_test_002_003_execute.lto_priv.0
                0x000000000800b650      0x210 /tmp/ch.elf.PrlmSi.ltrans1.ltrans.o
                0x000000000800b650                oslib_test_002_003_execute.lto_priv.0
 .text.Thread1.lto_priv.0
                0x000000000800b860       0x9c /tmp/ch.elf.PrlmSi.ltrans1.ltrans.o
 *fill*         0x000000000800b8fc        0x4 
 .text.oslib_test_007_002_execute.lto_priv.0
                0x000000000800b900      0x164 /tmp/ch.elf.PrlmSi.ltrans1.ltrans.o
                0x000000000800b900                oslib_test_007_002_execute.lto_priv.0
 *fill*         0x000000000800ba64        0xc 
 .text.oslib_test_007_003_execute.lto_priv.0
                0x000000000800ba70       0x2c /tmp/ch.elf.PrlmSi.ltrans1.ltrans.o
                0x000000000800ba70                oslib_test_007_003_execute.lto_priv.0
 *fill*         0x000000000800ba9c        0x4 
 .text.oslib_test_004_001_execute.lto_priv.0
                0x000000000800baa0      0x1d8 /tmp/ch.elf.PrlmSi.ltrans1.ltrans.o
                0x000000000800baa0                oslib_test_004_001_execute.lto_priv.0
 *fill*         0x000000000800bc78        0x8 
 .text.Thread1.lto_priv.1
                0x000000000800bc80       0x98 /tmp/ch.elf.PrlmSi.ltrans1.ltrans.o
 *fill*         0x000000000800bd18        0x8 
 .text.oslib_test_005_001_execute.lto_priv.0
                0x000000000800bd20      0x14c /tmp/ch.elf.PrlmSi.ltrans1.ltrans.o
                0x000000000800bd20                oslib_test_005_001_execute.lto_priv.0
 *fill*         0x000000000800be6c        0x4 
 .text.chFactoryReleaseObjectsFIFO.isra.0
                0x000000000800be70       0x50 /tmp/ch.elf.PrlmSi.ltrans1.ltrans.o
 .text.chFactoryReleasePipe.isra.0
                0x000000000800bec0       0x50 /tmp/ch.elf.PrlmSi.ltrans1.ltrans.o
 .text.chFactoryReleaseMailbox.isra.0
                0x000000000800bf10       0x50 /tmp/ch.elf.PrlmSi.ltrans1.ltrans.o
 .text.chFactoryReleaseBuffer.isra.0
                0x000000000800bf60       0x50 /tmp/ch.elf.PrlmSi.ltrans1.ltrans.o
 .text.oslib_test_008_001_execute.lto_priv.0
                0x000000000800bfb0      0x464 /tmp/ch.elf.PrlmSi.ltrans1.ltrans.o
                0x000000000800bfb0                oslib_test_008_001_execute.lto_priv.0
 *fill*         0x000000000800c414        0xc 
 .text.oslib_test_008_002_execute.lto_priv.0
                0x000000000800c420       0x7c /tmp/ch.elf.PrlmSi.ltrans1.ltrans.o
                0x000000000800c420                oslib_test_008_002_execute.lto_priv.0
 *fill*         0x000000000800c49c        0x4 
 .text.chFactoryCreateSemaphore.constprop.0
                0x000000000800c4a0       0xc0 /tmp/ch.elf.PrlmSi.ltrans1.ltrans.o
 .text.oslib_test_009_001_teardown.lto_priv.0
                0x000000000800c560       0x68 /tmp/ch.elf.PrlmSi.ltrans1.ltrans.o
                0x000000000800c560                oslib_test_009_001_teardown.lto_priv.0
 *fill*         0x000000000800c5c8        0x8 
 .text.oslib_test_009_002_teardown.lto_priv.0
                0x000000000800c5d0       0x68 /tmp/ch.elf.PrlmSi.ltrans1.ltrans.o
                0x000000000800c5d0                oslib_test_009_002_teardown.lto_priv.0
 *fill*         0x000000000800c638        0x8 
 .text.oslib_test_009_003_teardown.lto_priv.0
                0x000000000800c640       0x68 /tmp/ch.elf.PrlmSi.ltrans1.ltrans.o
                0x000000000800c640                oslib_test_009_003_teardown.lto_priv.0
 *fill*         0x000000000800c6a8        0x8 
 .text.oslib_test_009_004_teardown.lto_priv.0
                0x000000000800c6b0       0x68 /tmp/ch.elf.PrlmSi.ltrans1.ltrans.o
                0x000000000800c6b0                oslib_test_009_004_teardown.lto_priv.0
 *fill*         0x000000000800c718        0x8 
 .text.oslib_test_009_005_teardown.lto_priv.0
                0x000000000800c720       0x68 /tmp/ch.elf.PrlmSi.ltrans1.ltrans.o
                0x000000000800c720                oslib_test_009_005_teardown.lto_priv.0
 *fill*         0x000000000800c788        0x8 
 .text.oslib_test_009_006_teardown.lto_priv.0
                0x000000000800c790       0x68 /tmp/ch.elf.PrlmSi.ltrans1.ltrans.o
                0x000000000800c790                oslib_test_009_006_teardown.lto_priv.0
 *fill*         0x000000000800c7f8        0x8 
 .text.chFactoryFindPipe.constprop.0
                0x000000000800c800       0x60 /tmp/ch.elf.PrlmSi.ltrans1.ltrans.o
 .text.chFactoryFindObjectsFIFO.constprop.0
                0x000000000800c860       0x60 /tmp/ch.elf.PrlmSi.ltrans1.ltrans.o
 .text.chFactoryFindMailbox.constprop.0
                0x000000000800c8c0       0x60 /tmp/ch.elf.PrlmSi.ltrans1.ltrans.o
 .text.chFactoryFindSemaphore.constprop.0
                0x000000000800c920       0x60 /tmp/ch.elf.PrlmSi.ltrans1.ltrans.o
 .text.oslib_test_009_003_execute.lto_priv.0
                0x000000000800c980      0x120 /tmp/ch.elf.PrlmSi.ltrans1.ltrans.o
                0x000000000800c980                oslib_test_009_003_execute.lto_priv.0
 .text.chFactoryFindBuffer.constprop.0
                0x000000000800caa0       0x60 /tmp/ch.elf.PrlmSi.ltrans1.ltrans.o
 .text.chFactoryFindObject.constprop.0
                0x000000000800cb00       0x60 /tmp/ch.elf.PrlmSi.ltrans1.ltrans.o
 .text.chFactoryRegisterObject.constprop.0
                0x000000000800cb60       0xc4 /tmp/ch.elf.PrlmSi.ltrans1.ltrans.o
 *fill*         0x000000000800cc24        0xc 
 .text.oslib_test_009_001_execute.lto_priv.0
                0x000000000800cc30      0x160 /tmp/ch.elf.PrlmSi.ltrans1.ltrans.o
                0x000000000800cc30                oslib_test_009_001_execute.lto_priv.0
 .text.chFactoryCreatePipe.constprop.0
                0x000000000800cd90       0x70 /tmp/ch.elf.PrlmSi.ltrans1.ltrans.o
 .text.oslib_test_009_006_execute.lto_priv.0
                0x000000000800ce00      0x120 /tmp/ch.elf.PrlmSi.ltrans1.ltrans.o
                0x000000000800ce00                oslib_test_009_006_execute.lto_priv.0
 .text.chFactoryCreateObjectsFIFO.constprop.0
                0x000000000800cf20       0xf4 /tmp/ch.elf.PrlmSi.ltrans1.ltrans.o
 *fill*         0x000000000800d014        0xc 
 .text.oslib_test_009_005_execute.lto_priv.0
                0x000000000800d020      0x120 /tmp/ch.elf.PrlmSi.ltrans1.ltrans.o
                0x000000000800d020                oslib_test_009_005_execute.lto_priv.0
 .text.chFactoryCreateMailbox.constprop.0
                0x000000000800d140       0x60 /tmp/ch.elf.PrlmSi.ltrans1.ltrans.o
 .text.oslib_test_009_004_execute.lto_priv.0
                0x000000000800d1a0      0x120 /tmp/ch.elf.PrlmSi.ltrans1.ltrans.o
                0x000000000800d1a0                oslib_test_009_004_execute.lto_priv.0
 .text.oslib_test_009_002_execute.lto_priv.0
                0x000000000800d2c0      0x194 /tmp/ch.elf.PrlmSi.ltrans1.ltrans.o
                0x000000000800d2c0                oslib_test_009_002_execute.lto_priv.0
 *fill*         0x000000000800d454        0xc 
 .text.dir_next.constprop.0
                0x000000000800d460       0x94 /tmp/ch.elf.PrlmSi.ltrans1.ltrans.o
 *fill*         0x000000000800d4f4        0xc 
 .text.dir_sdi.constprop.0
                0x000000000800d500       0x74 /tmp/ch.elf.PrlmSi.ltrans1.ltrans.o
 *fill*         0x000000000800d574        0xc 
 .text.RemoveHandler
                0x000000000800d580       0x58 /tmp/ch.elf.PrlmSi.ltrans1.ltrans.o
 *fill*         0x000000000800d5d8        0x8 
 .text.dir_read.constprop.0
                0x000000000800d5e0      0x2cc /tmp/ch.elf.PrlmSi.ltrans1.ltrans.o
 *fill*         0x000000000800d8ac        0x4 
 .text.mount_volume.constprop.0
                0x000000000800d8b0      0x3a8 /tmp/ch.elf.PrlmSi.ltrans1.ltrans.o
 *fill*         0x000000000800dc58        0x8 
 .text.InsertHandler
                0x000000000800dc60       0x6c /tmp/ch.elf.PrlmSi.ltrans1.ltrans.o
 *fill*         0x000000000800dccc        0x4 
 .text.scan_files.constprop.0
                0x000000000800dcd0      0x938 /tmp/ch.elf.PrlmSi.ltrans1.ltrans.o
 *fill*         0x000000000800e608        0x8 
 .text.cmd_tree
                0x000000000800e610      0x180 /tmp/ch.elf.PrlmSi.ltrans1.ltrans.o
 .text.chThdCreateFromMemoryPool.constprop.0
                0x000000000800e790       0x88 /tmp/ch.elf.PrlmSi.ltrans1.ltrans.o
                0x000000000800e790                chThdCreateFromMemoryPool.constprop.0
 *fill*         0x000000000800e818        0x8 
 .text.chEvtWaitOneTimeout.constprop.0
                0x000000000800e820       0x4c /tmp/ch.elf.PrlmSi.ltrans1.ltrans.o
                0x000000000800e820                chEvtWaitOneTimeout.constprop.0
 *fill*         0x000000000800e86c        0x4 
 .text.chEvtWaitOne.constprop.0
                0x000000000800e870       0x50 /tmp/ch.elf.PrlmSi.ltrans1.ltrans.o
                0x000000000800e870                chEvtWaitOne.constprop.0
 .text.chSemResetWithMessage.constprop.0
                0x000000000800e8c0       0x60 /tmp/ch.elf.PrlmSi.ltrans1.ltrans.o
                0x000000000800e8c0                chSemResetWithMessage.constprop.0
 .text.rt_test_012_007_execute.lto_priv.0
                0x000000000800e920      0x188 /tmp/ch.elf.PrlmSi.ltrans1.ltrans.o
                0x000000000800e920                rt_test_012_007_execute.lto_priv.0
 *fill*         0x000000000800eaa8        0x8 
 .text.vt_insert_first.constprop.0
                0x000000000800eab0       0x80 /tmp/ch.elf.PrlmSi.ltrans1.ltrans.o
                0x000000000800eab0                vt_insert_first.constprop.0
 .text.vt_enqueue.constprop.0
                0x000000000800eb30       0xc4 /tmp/ch.elf.PrlmSi.ltrans1.ltrans.o
                0x000000000800eb30                vt_enqueue.constprop.0
 *fill*         0x000000000800ebf4        0xc 
 .text.rt_test_012_009_execute.lto_priv.0
                0x000000000800ec00       0xd0 /tmp/ch.elf.PrlmSi.ltrans1.ltrans.o
                0x000000000800ec00                rt_test_012_009_execute.lto_priv.0
 .text.job_slow
                0x000000000800ecd0       0x70 /tmp/ch.elf.PrlmSi.ltrans1.ltrans.o
 .text.startup.main
                0x000000000800ed40      0x860 /tmp/ch.elf.PrlmSi.ltrans1.ltrans.o
                0x000000000800ed40                main
 .text.tmrfunc  0x000000000800f5a0       0x84 /tmp/ch.elf.PrlmSi.ltrans1.ltrans.o
 *fill*         0x000000000800f624        0xc 
 .text.chPipeWriteTimeout.constprop.0
                0x000000000800f630      0x108 /tmp/ch.elf.PrlmSi.ltrans1.ltrans.o
 *fill*         0x000000000800f738        0x8 
 .text.chPipeReadTimeout.part.0.constprop.0
                0x000000000800f740       0xe4 /tmp/ch.elf.PrlmSi.ltrans1.ltrans.o
 *fill*         0x000000000800f824        0xc 
 .text.oslib_test_003_001_execute.lto_priv.0
                0x000000000800f830      0x47c /tmp/ch.elf.PrlmSi.ltrans1.ltrans.o
                0x000000000800f830                oslib_test_003_001_execute.lto_priv.0
 *fill*         0x000000000800fcac        0x4 
 .text.oslib_test_003_002_execute.lto_priv.0
                0x000000000800fcb0       0x80 /tmp/ch.elf.PrlmSi.ltrans1.ltrans.o
                0x000000000800fcb0                oslib_test_003_002_execute.lto_priv.0
 .text.chSemSignalWait.constprop.0.isra.0
                0x000000000800fd30       0x9c /tmp/ch.elf.PrlmSi.ltrans1.ltrans.o
                0x000000000800fd30                chSemSignalWait.constprop.0.isra.0
 *fill*         0x000000000800fdcc        0x4 
 .text.test_execute_inner.isra.0
                0x000000000800fdd0      0x318 /tmp/ch.elf.PrlmSi.ltrans1.ltrans.o
                0x000000000800fdd0                test_execute_inner.isra.0
 *fill*         0x00000000080100e8        0x8 
 .text.sdu_start_receive.isra.0
                0x00000000080100f0       0x48 /tmp/ch.elf.PrlmSi.ltrans1.ltrans.o
                0x00000000080100f0                sdu_start_receive.isra.0
 *(.glue_7t)
 .glue_7t       0x0000000008010138        0x0 linker stubs
 *(.glue_7)
 .glue_7        0x0000000008010138        0x0 linker stubs
 *(.gcc*)
                0x0000000008010138                __text_end__ = .

.vfp11_veneer   0x0000000008010138        0x0
 .vfp11_veneer  0x0000000008010138        0x0 linker stubs

.v4_bx          0x0000000008010138        0x0
 .v4_bx         0x0000000008010138        0x0 linker stubs

.iplt           0x0000000008010138        0x0
 .iplt          0x0000000008010138        0x0 ./build/obj/crt0_v7m.o

.rodata         0x0000000008010138     0x3258
                0x0000000008010138                __rodata_base__ = .
 *(.rodata)
 *(.rodata.*)
 .rodata.rt_test_002_001_execute.str1.4
                0x0000000008010138       0x57 /tmp/ch.elf.PrlmSi.ltrans0.ltrans.o
 *fill*         0x000000000801018f        0x1 
 .rodata.rt_test_010_001_execute.str1.4
                0x0000000008010190       0x1b /tmp/ch.elf.PrlmSi.ltrans0.ltrans.o
 *fill*         0x00000000080101ab        0x1 
 .rodata.parse_arguments.str1.4
                0x00000000080101ac        0x3 /tmp/ch.elf.PrlmSi.ltrans0.ltrans.o
 *fill*         0x00000000080101af        0x1 
 .rodata.rt_test_004_001_execute.str1.4
                0x00000000080101b0        0xe /tmp/ch.elf.PrlmSi.ltrans0.ltrans.o
 *fill*         0x00000000080101be        0x2 
 .rodata.rt_test_005_001_execute.str1.4
                0x00000000080101c0       0x13 /tmp/ch.elf.PrlmSi.ltrans0.ltrans.o
 *fill*         0x00000000080101d3        0x1 
 .rodata.rt_test_010_006_execute.str1.4
                0x00000000080101d4        0xf /tmp/ch.elf.PrlmSi.ltrans0.ltrans.o
 *fill*         0x00000000080101e3        0x1 
 .rodata.rt_test_002_002_execute.str1.4
                0x00000000080101e4       0x12 /tmp/ch.elf.PrlmSi.ltrans0.ltrans.o
 *fill*         0x00000000080101f6        0x2 
 .rodata.rt_test_005_003_execute.str1.4
                0x00000000080101f8       0x3e /tmp/ch.elf.PrlmSi.ltrans0.ltrans.o
 *fill*         0x0000000008010236        0x2 
 .rodata.rt_test_005_004_execute.str1.4
                0x0000000008010238       0x47 /tmp/ch.elf.PrlmSi.ltrans0.ltrans.o
 *fill*         0x000000000801027f        0x1 
 .rodata.rt_test_007_001_execute.str1.4
                0x0000000008010280       0x2b /tmp/ch.elf.PrlmSi.ltrans0.ltrans.o
 *fill*         0x00000000080102ab        0x1 
 .rodata.chThdCreateStatic.str1.4
                0x00000000080102ac        0x7 /tmp/ch.elf.PrlmSi.ltrans0.ltrans.o
 *fill*         0x00000000080102b3        0x1 
 .rodata.rt_test_007_005_execute.str1.4
                0x00000000080102b4       0x21 /tmp/ch.elf.PrlmSi.ltrans0.ltrans.o
 *fill*         0x00000000080102d5        0x3 
 .rodata.rt_test_007_006_execute.str1.4
                0x00000000080102d8       0x3f /tmp/ch.elf.PrlmSi.ltrans0.ltrans.o
                                         0x46 (size before relaxing)
 *fill*         0x0000000008010317        0x1 
 .rodata.rt_test_008_004_execute.str1.4
                0x0000000008010318       0x1d /tmp/ch.elf.PrlmSi.ltrans0.ltrans.o
 *fill*         0x0000000008010335        0x3 
 .rodata.rt_test_008_005_execute.str1.4
                0x0000000008010338       0x28 /tmp/ch.elf.PrlmSi.ltrans0.ltrans.o
 .rodata.rt_test_006_001_execute.str1.4
                0x0000000008010360        0x9 /tmp/ch.elf.PrlmSi.ltrans0.ltrans.o
 *fill*         0x0000000008010369        0x3 
 .rodata.rt_test_010_007_execute.str1.4
                0x000000000801036c        0xc /tmp/ch.elf.PrlmSi.ltrans0.ltrans.o
 .rodata.chprintf.str1.4
                0x0000000008010378        0x7 /tmp/ch.elf.PrlmSi.ltrans0.ltrans.o
 *fill*         0x000000000801037f        0x1 
 .rodata.shellThread.str1.4
                0x0000000008010380       0x81 /tmp/ch.elf.PrlmSi.ltrans0.ltrans.o
                                         0x85 (size before relaxing)
 *fill*         0x0000000008010401        0x3 
 .rodata.cmd_info.str1.4
                0x0000000008010404      0x145 /tmp/ch.elf.PrlmSi.ltrans0.ltrans.o
                                        0x159 (size before relaxing)
 *fill*         0x0000000008010549        0x3 
 .rodata.cmd_echo.str1.4
                0x000000000801054c        0xf /tmp/ch.elf.PrlmSi.ltrans0.ltrans.o
                                         0x15 (size before relaxing)
 *fill*         0x000000000801055b        0x1 
 .rodata.cmd_systime.str1.4
                0x000000000801055c        0xe /tmp/ch.elf.PrlmSi.ltrans0.ltrans.o
 *fill*         0x000000000801056a        0x2 
 .rodata.cmd_mem.str1.4
                0x000000000801056c       0x7a /tmp/ch.elf.PrlmSi.ltrans0.ltrans.o
 *fill*         0x00000000080105e6        0x2 
 .rodata.cmd_threads.str1.4
                0x00000000080105e8       0x70 /tmp/ch.elf.PrlmSi.ltrans0.ltrans.o
                                         0x7c (size before relaxing)
 .rodata.cmd_test.str1.4
                0x0000000008010658       0x20 /tmp/ch.elf.PrlmSi.ltrans0.ltrans.o
                                         0x30 (size before relaxing)
 .rodata.check_fs.lto_priv.0.str1.4
                0x0000000008010678       0x15 /tmp/ch.elf.PrlmSi.ltrans0.ltrans.o
 *fill*         0x000000000801068d        0x3 
 .rodata.rt_test_005_002_execute.str1.4
                0x0000000008010690       0x1e /tmp/ch.elf.PrlmSi.ltrans0.ltrans.o
                                         0x26 (size before relaxing)
 *fill*         0x00000000080106ae        0x2 
 .rodata.rt_test_007_004_execute.str1.4
                0x00000000080106b0       0x10 /tmp/ch.elf.PrlmSi.ltrans0.ltrans.o
 .rodata.rt_test_008_009_execute.str1.4
                0x00000000080106c0        0x4 /tmp/ch.elf.PrlmSi.ltrans0.ltrans.o
 .rodata.rt_test_009_001_execute.str1.4
                0x00000000080106c4        0x5 /tmp/ch.elf.PrlmSi.ltrans0.ltrans.o
 *fill*         0x00000000080106c9        0x3 
 .rodata.rt_test_011_001_execute.str1.4
                0x00000000080106cc       0xb2 /tmp/ch.elf.PrlmSi.ltrans0.ltrans.o
 *fill*         0x000000000801077e        0x2 
 .rodata.rt_test_011_002_execute.str1.4
                0x0000000008010780       0x34 /tmp/ch.elf.PrlmSi.ltrans0.ltrans.o
 .rodata.rt_test_001_001_execute.lto_priv.0.str1.4
                0x00000000080107b4      0x135 /tmp/ch.elf.PrlmSi.ltrans0.ltrans.o
 *fill*         0x00000000080108e9        0x3 
 .rodata.rt_test_001_002_execute.str1.4
                0x00000000080108ec      0x10d /tmp/ch.elf.PrlmSi.ltrans0.ltrans.o
 *fill*         0x00000000080109f9        0x3 
 .rodata.rt_test_001_003_execute.str1.4
                0x00000000080109fc      0x57d /tmp/ch.elf.PrlmSi.ltrans0.ltrans.o
 *fill*         0x0000000008010f79        0x3 
 .rodata.rt_test_012_001_execute.str1.4
                0x0000000008010f7c       0x26 /tmp/ch.elf.PrlmSi.ltrans0.ltrans.o
 *fill*         0x0000000008010fa2        0x2 
 .rodata.rt_test_007_003_execute.str1.4
                0x0000000008010fa4       0x16 /tmp/ch.elf.PrlmSi.ltrans0.ltrans.o
 *fill*         0x0000000008010fba        0x2 
 .rodata.rt_test_010_003_execute.str1.4
                0x0000000008010fbc       0x25 /tmp/ch.elf.PrlmSi.ltrans0.ltrans.o
 *fill*         0x0000000008010fe1        0x3 
 .rodata.rt_test_010_004_execute.str1.4
                0x0000000008010fe4       0x17 /tmp/ch.elf.PrlmSi.ltrans0.ltrans.o
 *fill*         0x0000000008010ffb        0x1 
 .rodata.str1.4
                0x0000000008010ffc      0xa99 /tmp/ch.elf.PrlmSi.ltrans0.ltrans.o
 *fill*         0x0000000008011a95        0x3 
 .rodata._stm32_dma_streams
                0x0000000008011a98       0xc0 /tmp/ch.elf.PrlmSi.ltrans0.ltrans.o
                0x0000000008011a98                _stm32_dma_streams
 .rodata.active_status
                0x0000000008011b58        0x2 /tmp/ch.elf.PrlmSi.ltrans0.ltrans.o
 *fill*         0x0000000008011b5a        0x2 
 .rodata.cvt1.1
                0x0000000008011b5c      0x1f2 /tmp/ch.elf.PrlmSi.ltrans0.ltrans.o
 *fill*         0x0000000008011d4e        0x2 
 .rodata.cvt2.0
                0x0000000008011d50       0xbc /tmp/ch.elf.PrlmSi.ltrans0.ltrans.o
 .rodata.ep0config.lto_priv.0
                0x0000000008011e0c       0x24 /tmp/ch.elf.PrlmSi.ltrans0.ltrans.o
                0x0000000008011e0c                ep0config.lto_priv.0
 .rodata.ep1config
                0x0000000008011e30       0x24 /tmp/ch.elf.PrlmSi.ltrans0.ltrans.o
 .rodata.ep2config
                0x0000000008011e54       0x24 /tmp/ch.elf.PrlmSi.ltrans0.ltrans.o
 .rodata.evhndl
                0x0000000008011e78        0xc /tmp/ch.elf.PrlmSi.ltrans0.ltrans.o
 .rodata.halted_status
                0x0000000008011e84        0x2 /tmp/ch.elf.PrlmSi.ltrans0.ltrans.o
 *fill*         0x0000000008011e86        0x2 
 .rodata.oslib_test_001_001
                0x0000000008011e88       0x10 /tmp/ch.elf.PrlmSi.ltrans0.ltrans.o
 .rodata.oslib_test_001_002
                0x0000000008011e98       0x10 /tmp/ch.elf.PrlmSi.ltrans0.ltrans.o
 .rodata.oslib_test_001_003
                0x0000000008011ea8       0x10 /tmp/ch.elf.PrlmSi.ltrans0.ltrans.o
 .rodata.oslib_test_002_001
                0x0000000008011eb8       0x10 /tmp/ch.elf.PrlmSi.ltrans0.ltrans.o
 .rodata.oslib_test_002_002
                0x0000000008011ec8       0x10 /tmp/ch.elf.PrlmSi.ltrans0.ltrans.o
 .rodata.oslib_test_002_003
                0x0000000008011ed8       0x10 /tmp/ch.elf.PrlmSi.ltrans0.ltrans.o
 .rodata.oslib_test_003_001
                0x0000000008011ee8       0x10 /tmp/ch.elf.PrlmSi.ltrans0.ltrans.o
 .rodata.oslib_test_003_002
                0x0000000008011ef8       0x10 /tmp/ch.elf.PrlmSi.ltrans0.ltrans.o
 .rodata.oslib_test_004_001
                0x0000000008011f08       0x10 /tmp/ch.elf.PrlmSi.ltrans0.ltrans.o
 .rodata.oslib_test_005_001
                0x0000000008011f18       0x10 /tmp/ch.elf.PrlmSi.ltrans0.ltrans.o
 .rodata.oslib_test_006_001
                0x0000000008011f28       0x10 /tmp/ch.elf.PrlmSi.ltrans0.ltrans.o
 .rodata.oslib_test_007_001
                0x0000000008011f38       0x10 /tmp/ch.elf.PrlmSi.ltrans0.ltrans.o
 .rodata.oslib_test_007_002
                0x0000000008011f48       0x10 /tmp/ch.elf.PrlmSi.ltrans0.ltrans.o
 .rodata.oslib_test_007_003
                0x0000000008011f58       0x10 /tmp/ch.elf.PrlmSi.ltrans0.ltrans.o
 .rodata.oslib_test_008_001
                0x0000000008011f68       0x10 /tmp/ch.elf.PrlmSi.ltrans0.ltrans.o
 .rodata.oslib_test_008_002
                0x0000000008011f78       0x10 /tmp/ch.elf.PrlmSi.ltrans0.ltrans.o
 .rodata.oslib_test_009_001
                0x0000000008011f88       0x10 /tmp/ch.elf.PrlmSi.ltrans0.ltrans.o
 .rodata.oslib_test_009_002
                0x0000000008011f98       0x10 /tmp/ch.elf.PrlmSi.ltrans0.ltrans.o
 .rodata.oslib_test_009_003
                0x0000000008011fa8       0x10 /tmp/ch.elf.PrlmSi.ltrans0.ltrans.o
 .rodata.oslib_test_009_004
                0x0000000008011fb8       0x10 /tmp/ch.elf.PrlmSi.ltrans0.ltrans.o
 .rodata.oslib_test_009_005
                0x0000000008011fc8       0x10 /tmp/ch.elf.PrlmSi.ltrans0.ltrans.o
 .rodata.oslib_test_009_006
                0x0000000008011fd8       0x10 /tmp/ch.elf.PrlmSi.ltrans0.ltrans.o
 .rodata.oslib_test_sequence_001
                0x0000000008011fe8        0x8 /tmp/ch.elf.PrlmSi.ltrans0.ltrans.o
 .rodata.oslib_test_sequence_001_array
                0x0000000008011ff0       0x10 /tmp/ch.elf.PrlmSi.ltrans0.ltrans.o
 .rodata.oslib_test_sequence_002
                0x0000000008012000        0x8 /tmp/ch.elf.PrlmSi.ltrans0.ltrans.o
 .rodata.oslib_test_sequence_002_array
                0x0000000008012008       0x10 /tmp/ch.elf.PrlmSi.ltrans0.ltrans.o
 .rodata.oslib_test_sequence_003
                0x0000000008012018        0x8 /tmp/ch.elf.PrlmSi.ltrans0.ltrans.o
 .rodata.oslib_test_sequence_003_array
                0x0000000008012020        0xc /tmp/ch.elf.PrlmSi.ltrans0.ltrans.o
 .rodata.oslib_test_sequence_004
                0x000000000801202c        0x8 /tmp/ch.elf.PrlmSi.ltrans0.ltrans.o
 .rodata.oslib_test_sequence_004_array
                0x0000000008012034        0x8 /tmp/ch.elf.PrlmSi.ltrans0.ltrans.o
 .rodata.oslib_test_sequence_005
                0x000000000801203c        0x8 /tmp/ch.elf.PrlmSi.ltrans0.ltrans.o
 .rodata.oslib_test_sequence_005_array
                0x0000000008012044        0x8 /tmp/ch.elf.PrlmSi.ltrans0.ltrans.o
 .rodata.oslib_test_sequence_006
                0x000000000801204c        0x8 /tmp/ch.elf.PrlmSi.ltrans0.ltrans.o
 .rodata.oslib_test_sequence_006_array
                0x0000000008012054        0x8 /tmp/ch.elf.PrlmSi.ltrans0.ltrans.o
 .rodata.oslib_test_sequence_007
                0x000000000801205c        0x8 /tmp/ch.elf.PrlmSi.ltrans0.ltrans.o
 .rodata.oslib_test_sequence_007_array
                0x0000000008012064       0x10 /tmp/ch.elf.PrlmSi.ltrans0.ltrans.o
 .rodata.oslib_test_sequence_008
                0x0000000008012074        0x8 /tmp/ch.elf.PrlmSi.ltrans0.ltrans.o
 .rodata.oslib_test_sequence_008_array
                0x000000000801207c        0xc /tmp/ch.elf.PrlmSi.ltrans0.ltrans.o
 .rodata.oslib_test_sequence_009
                0x0000000008012088        0x8 /tmp/ch.elf.PrlmSi.ltrans0.ltrans.o
 .rodata.oslib_test_sequence_009_array
                0x0000000008012090       0x1c /tmp/ch.elf.PrlmSi.ltrans0.ltrans.o
 .rodata.oslib_test_suite
                0x00000000080120ac        0x8 /tmp/ch.elf.PrlmSi.ltrans0.ltrans.o
 .rodata.oslib_test_suite_array
                0x00000000080120b4       0x28 /tmp/ch.elf.PrlmSi.ltrans0.ltrans.o
 .rodata.ram_areas
                0x00000000080120dc       0x80 /tmp/ch.elf.PrlmSi.ltrans0.ltrans.o
 .rodata.rt_test_001_001
                0x000000000801215c       0x10 /tmp/ch.elf.PrlmSi.ltrans0.ltrans.o
 .rodata.rt_test_001_002
                0x000000000801216c       0x10 /tmp/ch.elf.PrlmSi.ltrans0.ltrans.o
 .rodata.rt_test_001_003
                0x000000000801217c       0x10 /tmp/ch.elf.PrlmSi.ltrans0.ltrans.o
 .rodata.rt_test_002_001
                0x000000000801218c       0x10 /tmp/ch.elf.PrlmSi.ltrans0.ltrans.o
 .rodata.rt_test_002_002
                0x000000000801219c       0x10 /tmp/ch.elf.PrlmSi.ltrans0.ltrans.o
 .rodata.rt_test_002_003
                0x00000000080121ac       0x10 /tmp/ch.elf.PrlmSi.ltrans0.ltrans.o
 .rodata.rt_test_003_001
                0x00000000080121bc       0x10 /tmp/ch.elf.PrlmSi.ltrans0.ltrans.o
 .rodata.rt_test_003_002
                0x00000000080121cc       0x10 /tmp/ch.elf.PrlmSi.ltrans0.ltrans.o
 .rodata.rt_test_004_001
                0x00000000080121dc       0x10 /tmp/ch.elf.PrlmSi.ltrans0.ltrans.o
 .rodata.rt_test_005_001
                0x00000000080121ec       0x10 /tmp/ch.elf.PrlmSi.ltrans0.ltrans.o
 .rodata.rt_test_005_002
                0x00000000080121fc       0x10 /tmp/ch.elf.PrlmSi.ltrans0.ltrans.o
 .rodata.rt_test_005_003
                0x000000000801220c       0x10 /tmp/ch.elf.PrlmSi.ltrans0.ltrans.o
 .rodata.rt_test_005_004
                0x000000000801221c       0x10 /tmp/ch.elf.PrlmSi.ltrans0.ltrans.o
 .rodata.rt_test_006_001
                0x000000000801222c       0x10 /tmp/ch.elf.PrlmSi.ltrans0.ltrans.o
 .rodata.rt_test_007_001
                0x000000000801223c       0x10 /tmp/ch.elf.PrlmSi.ltrans0.ltrans.o
 .rodata.rt_test_007_002
                0x000000000801224c       0x10 /tmp/ch.elf.PrlmSi.ltrans0.ltrans.o
 .rodata.rt_test_007_003
                0x000000000801225c       0x10 /tmp/ch.elf.PrlmSi.ltrans0.ltrans.o
 .rodata.rt_test_007_004
                0x000000000801226c       0x10 /tmp/ch.elf.PrlmSi.ltrans0.ltrans.o
 .rodata.rt_test_007_005
                0x000000000801227c       0x10 /tmp/ch.elf.PrlmSi.ltrans0.ltrans.o
 .rodata.rt_test_007_006
                0x000000000801228c       0x10 /tmp/ch.elf.PrlmSi.ltrans0.ltrans.o
 .rodata.rt_test_008_001
                0x000000000801229c       0x10 /tmp/ch.elf.PrlmSi.ltrans0.ltrans.o
 .rodata.rt_test_008_004
                0x00000000080122ac       0x10 /tmp/ch.elf.PrlmSi.ltrans0.ltrans.o
 .rodata.rt_test_008_005
                0x00000000080122bc       0x10 /tmp/ch.elf.PrlmSi.ltrans0.ltrans.o
 .rodata.rt_test_008_007
                0x00000000080122cc       0x10 /tmp/ch.elf.PrlmSi.ltrans0.ltrans.o
 .rodata.rt_test_008_008
                0x00000000080122dc       0x10 /tmp/ch.elf.PrlmSi.ltrans0.ltrans.o
 .rodata.rt_test_008_009
                0x00000000080122ec       0x10 /tmp/ch.elf.PrlmSi.ltrans0.ltrans.o
 .rodata.rt_test_009_001
                0x00000000080122fc       0x10 /tmp/ch.elf.PrlmSi.ltrans0.ltrans.o
 .rodata.rt_test_010_001
                0x000000000801230c       0x10 /tmp/ch.elf.PrlmSi.ltrans0.ltrans.o
 .rodata.rt_test_010_002
                0x000000000801231c       0x10 /tmp/ch.elf.PrlmSi.ltrans0.ltrans.o
 .rodata.rt_test_010_003
                0x000000000801232c       0x10 /tmp/ch.elf.PrlmSi.ltrans0.ltrans.o
 .rodata.rt_test_010_004
                0x000000000801233c       0x10 /tmp/ch.elf.PrlmSi.ltrans0.ltrans.o
 .rodata.rt_test_010_005
                0x000000000801234c       0x10 /tmp/ch.elf.PrlmSi.ltrans0.ltrans.o
 .rodata.rt_test_010_006
                0x000000000801235c       0x10 /tmp/ch.elf.PrlmSi.ltrans0.ltrans.o
 .rodata.rt_test_010_007
                0x000000000801236c       0x10 /tmp/ch.elf.PrlmSi.ltrans0.ltrans.o
 .rodata.rt_test_011_001
                0x000000000801237c       0x10 /tmp/ch.elf.PrlmSi.ltrans0.ltrans.o
 .rodata.rt_test_011_002
                0x000000000801238c       0x10 /tmp/ch.elf.PrlmSi.ltrans0.ltrans.o
 .rodata.rt_test_012_001
                0x000000000801239c       0x10 /tmp/ch.elf.PrlmSi.ltrans0.ltrans.o
 .rodata.rt_test_012_002
                0x00000000080123ac       0x10 /tmp/ch.elf.PrlmSi.ltrans0.ltrans.o
 .rodata.rt_test_012_003
                0x00000000080123bc       0x10 /tmp/ch.elf.PrlmSi.ltrans0.ltrans.o
 .rodata.rt_test_012_004
                0x00000000080123cc       0x10 /tmp/ch.elf.PrlmSi.ltrans0.ltrans.o
 .rodata.rt_test_012_005
                0x00000000080123dc       0x10 /tmp/ch.elf.PrlmSi.ltrans0.ltrans.o
 .rodata.rt_test_012_006
                0x00000000080123ec       0x10 /tmp/ch.elf.PrlmSi.ltrans0.ltrans.o
 .rodata.rt_test_012_007
                0x00000000080123fc       0x10 /tmp/ch.elf.PrlmSi.ltrans0.ltrans.o
 .rodata.rt_test_012_008
                0x000000000801240c       0x10 /tmp/ch.elf.PrlmSi.ltrans0.ltrans.o
 .rodata.rt_test_012_009
                0x000000000801241c       0x10 /tmp/ch.elf.PrlmSi.ltrans0.ltrans.o
 .rodata.rt_test_012_010
                0x000000000801242c       0x10 /tmp/ch.elf.PrlmSi.ltrans0.ltrans.o
 .rodata.rt_test_012_011
                0x000000000801243c       0x10 /tmp/ch.elf.PrlmSi.ltrans0.ltrans.o
 .rodata.rt_test_012_012
                0x000000000801244c       0x10 /tmp/ch.elf.PrlmSi.ltrans0.ltrans.o
 .rodata.rt_test_sequence_001
                0x000000000801245c        0x8 /tmp/ch.elf.PrlmSi.ltrans0.ltrans.o
 .rodata.rt_test_sequence_001_array
                0x0000000008012464       0x10 /tmp/ch.elf.PrlmSi.ltrans0.ltrans.o
 .rodata.rt_test_sequence_002
                0x0000000008012474        0x8 /tmp/ch.elf.PrlmSi.ltrans0.ltrans.o
 .rodata.rt_test_sequence_002_array
                0x000000000801247c       0x10 /tmp/ch.elf.PrlmSi.ltrans0.ltrans.o
 .rodata.rt_test_sequence_003
                0x000000000801248c        0x8 /tmp/ch.elf.PrlmSi.ltrans0.ltrans.o
 .rodata.rt_test_sequence_003_array
                0x0000000008012494        0xc /tmp/ch.elf.PrlmSi.ltrans0.ltrans.o
 .rodata.rt_test_sequence_004
                0x00000000080124a0        0x8 /tmp/ch.elf.PrlmSi.ltrans0.ltrans.o
 .rodata.rt_test_sequence_004_array
                0x00000000080124a8        0x8 /tmp/ch.elf.PrlmSi.ltrans0.ltrans.o
 .rodata.rt_test_sequence_005
                0x00000000080124b0        0x8 /tmp/ch.elf.PrlmSi.ltrans0.ltrans.o
 .rodata.rt_test_sequence_005_array
                0x00000000080124b8       0x14 /tmp/ch.elf.PrlmSi.ltrans0.ltrans.o
 .rodata.rt_test_sequence_006
                0x00000000080124cc        0x8 /tmp/ch.elf.PrlmSi.ltrans0.ltrans.o
 .rodata.rt_test_sequence_006_array
                0x00000000080124d4        0x8 /tmp/ch.elf.PrlmSi.ltrans0.ltrans.o
 .rodata.rt_test_sequence_007
                0x00000000080124dc        0x8 /tmp/ch.elf.PrlmSi.ltrans0.ltrans.o
 .rodata.rt_test_sequence_007_array
                0x00000000080124e4       0x1c /tmp/ch.elf.PrlmSi.ltrans0.ltrans.o
 .rodata.rt_test_sequence_008
                0x0000000008012500        0x8 /tmp/ch.elf.PrlmSi.ltrans0.ltrans.o
 .rodata.rt_test_sequence_008_array
                0x0000000008012508       0x1c /tmp/ch.elf.PrlmSi.ltrans0.ltrans.o
 .rodata.rt_test_sequence_009
                0x0000000008012524        0x8 /tmp/ch.elf.PrlmSi.ltrans0.ltrans.o
 .rodata.rt_test_sequence_009_array
                0x000000000801252c        0x8 /tmp/ch.elf.PrlmSi.ltrans0.ltrans.o
 .rodata.rt_test_sequence_010
                0x0000000008012534        0x8 /tmp/ch.elf.PrlmSi.ltrans0.ltrans.o
 .rodata.rt_test_sequence_010_array
                0x000000000801253c       0x20 /tmp/ch.elf.PrlmSi.ltrans0.ltrans.o
 .rodata.rt_test_sequence_011
                0x000000000801255c        0x8 /tmp/ch.elf.PrlmSi.ltrans0.ltrans.o
 .rodata.rt_test_sequence_011_array
                0x0000000008012564        0xc /tmp/ch.elf.PrlmSi.ltrans0.ltrans.o
 .rodata.rt_test_sequence_012
                0x0000000008012570        0x8 /tmp/ch.elf.PrlmSi.ltrans0.ltrans.o
 .rodata.rt_test_sequence_012_array
                0x0000000008012578       0x34 /tmp/ch.elf.PrlmSi.ltrans0.ltrans.o
 .rodata.rt_test_suite
                0x00000000080125ac        0x8 /tmp/ch.elf.PrlmSi.ltrans0.ltrans.o
 .rodata.rt_test_suite_array
                0x00000000080125b4       0x34 /tmp/ch.elf.PrlmSi.ltrans0.ltrans.o
 .rodata.shell_local_commands
                0x00000000080125e8       0x40 /tmp/ch.elf.PrlmSi.ltrans0.ltrans.o
 .rodata.states.0
                0x0000000008012628       0x40 /tmp/ch.elf.PrlmSi.ltrans0.ltrans.o
 .rodata.uc850.lto_priv.0
                0x0000000008012668      0x100 /tmp/ch.elf.PrlmSi.ltrans0.ltrans.o
                0x0000000008012668                uc850.lto_priv.0
 .rodata.vcom_configuration_descriptor
                0x0000000008012768        0x8 /tmp/ch.elf.PrlmSi.ltrans0.ltrans.o
 .rodata.vcom_configuration_descriptor_data
                0x0000000008012770       0x43 /tmp/ch.elf.PrlmSi.ltrans0.ltrans.o
 *fill*         0x00000000080127b3        0x1 
 .rodata.vcom_device_descriptor
                0x00000000080127b4        0x8 /tmp/ch.elf.PrlmSi.ltrans0.ltrans.o
 .rodata.vcom_device_descriptor_data
                0x00000000080127bc       0x12 /tmp/ch.elf.PrlmSi.ltrans0.ltrans.o
 *fill*         0x00000000080127ce        0x2 
 .rodata.vcom_string0
                0x00000000080127d0        0x4 /tmp/ch.elf.PrlmSi.ltrans0.ltrans.o
 .rodata.vcom_string1
                0x00000000080127d4       0x26 /tmp/ch.elf.PrlmSi.ltrans0.ltrans.o
 *fill*         0x00000000080127fa        0x2 
 .rodata.vcom_string2
                0x00000000080127fc       0x38 /tmp/ch.elf.PrlmSi.ltrans0.ltrans.o
 .rodata.vcom_string3
                0x0000000008012834        0x8 /tmp/ch.elf.PrlmSi.ltrans0.ltrans.o
 .rodata.vcom_strings
                0x000000000801283c       0x20 /tmp/ch.elf.PrlmSi.ltrans0.ltrans.o
 .rodata.wa     0x000000000801285c       0x14 /tmp/ch.elf.PrlmSi.ltrans0.ltrans.o
                0x000000000801285c                wa
 .rodata.zero_status
                0x0000000008012870        0x2 /tmp/ch.elf.PrlmSi.ltrans0.ltrans.o
 *fill*         0x0000000008012872        0x2 
 .rodata.oslib_test_007_001_execute.lto_priv.0.str1.4
                0x0000000008012874       0x35 /tmp/ch.elf.PrlmSi.ltrans1.ltrans.o
 *fill*         0x00000000080128a9        0x3 
 .rodata.Thread1.lto_priv.2.str1.4
                0x00000000080128ac        0x8 /tmp/ch.elf.PrlmSi.ltrans1.ltrans.o
 .rodata.rt_test_012_012_execute.lto_priv.0.str1.4
                0x00000000080128b4       0x95 /tmp/ch.elf.PrlmSi.ltrans1.ltrans.o
                                         0xa5 (size before relaxing)
 *fill*         0x0000000008012949        0x3 
 .rodata.oslib_test_001_002_execute.lto_priv.0.str1.4
                0x000000000801294c       0x3a /tmp/ch.elf.PrlmSi.ltrans1.ltrans.o
                                        0x119 (size before relaxing)
 *fill*         0x0000000008012986        0x2 
 .rodata.oslib_test_001_003_execute.lto_priv.0.str1.4
                0x0000000008012988      0x2bd /tmp/ch.elf.PrlmSi.ltrans1.ltrans.o
 .rodata.rt_test_012_004_execute.lto_priv.0.str1.4
                0x0000000008012c45       0x1a /tmp/ch.elf.PrlmSi.ltrans1.ltrans.o
 *fill*         0x0000000008012c45        0x3 
 .rodata.rt_test_012_005_execute.lto_priv.0.str1.4
                0x0000000008012c48        0xb /tmp/ch.elf.PrlmSi.ltrans1.ltrans.o
 *fill*         0x0000000008012c53        0x1 
 .rodata.rt_test_012_010_execute.lto_priv.0.str1.4
                0x0000000008012c54        0xf /tmp/ch.elf.PrlmSi.ltrans1.ltrans.o
 *fill*         0x0000000008012c63        0x1 
 .rodata.rt_test_012_011_execute.lto_priv.0.str1.4
                0x0000000008012c64        0xf /tmp/ch.elf.PrlmSi.ltrans1.ltrans.o
 *fill*         0x0000000008012c73        0x1 
 .rodata.oslib_test_006_001_execute.lto_priv.0.str1.4
                0x0000000008012c74       0x5d /tmp/ch.elf.PrlmSi.ltrans1.ltrans.o
                                         0x65 (size before relaxing)
 *fill*         0x0000000008012cd1        0x3 
 .rodata.oslib_test_002_001_execute.lto_priv.0.str1.4
                0x0000000008012cd4       0xc3 /tmp/ch.elf.PrlmSi.ltrans1.ltrans.o
                                         0xe1 (size before relaxing)
 *fill*         0x0000000008012d97        0x1 
 .rodata.oslib_test_004_001_execute.lto_priv.0.str1.4
                0x0000000008012d98       0x18 /tmp/ch.elf.PrlmSi.ltrans1.ltrans.o
 .rodata.oslib_test_005_001_execute.lto_priv.0.str1.4
                0x0000000008012db0       0x46 /tmp/ch.elf.PrlmSi.ltrans1.ltrans.o
 *fill*         0x0000000008012df6        0x2 
 .rodata.oslib_test_008_001_execute.lto_priv.0.str1.4
                0x0000000008012df8       0x89 /tmp/ch.elf.PrlmSi.ltrans1.ltrans.o
                                         0x99 (size before relaxing)
 *fill*         0x0000000008012e81        0x3 
 .rodata.chFactoryCreateSemaphore.constprop.0.str1.4
                0x0000000008012e84        0x6 /tmp/ch.elf.PrlmSi.ltrans1.ltrans.o
 *fill*         0x0000000008012e8a        0x2 
 .rodata.oslib_test_009_001_teardown.lto_priv.0.str1.4
                0x0000000008012e8c        0x6 /tmp/ch.elf.PrlmSi.ltrans1.ltrans.o
 *fill*         0x0000000008012e92        0x2 
 .rodata.oslib_test_009_002_teardown.lto_priv.0.str1.4
                0x0000000008012e94        0x6 /tmp/ch.elf.PrlmSi.ltrans1.ltrans.o
 *fill*         0x0000000008012e9a        0x2 
 .rodata.oslib_test_009_004_teardown.lto_priv.0.str1.4
                0x0000000008012e9c        0x6 /tmp/ch.elf.PrlmSi.ltrans1.ltrans.o
 *fill*         0x0000000008012ea2        0x2 
 .rodata.oslib_test_009_005_teardown.lto_priv.0.str1.4
                0x0000000008012ea4        0x7 /tmp/ch.elf.PrlmSi.ltrans1.ltrans.o
 *fill*         0x0000000008012eab        0x1 
 .rodata.oslib_test_009_006_teardown.lto_priv.0.str1.4
                0x0000000008012eac        0x7 /tmp/ch.elf.PrlmSi.ltrans1.ltrans.o
 *fill*         0x0000000008012eb3        0x1 
 .rodata.oslib_test_009_003_execute.lto_priv.0.str1.4
                0x0000000008012eb4       0x58 /tmp/ch.elf.PrlmSi.ltrans1.ltrans.o
                                         0x60 (size before relaxing)
 .rodata.oslib_test_009_001_execute.lto_priv.0.str1.4
                0x0000000008012f0c       0x30 /tmp/ch.elf.PrlmSi.ltrans1.ltrans.o
 .rodata.InsertHandler.str1.4
                0x0000000008012f3c        0x2 /tmp/ch.elf.PrlmSi.ltrans1.ltrans.o
 *fill*         0x0000000008012f3e        0x2 
 .rodata.scan_files.constprop.0.str1.4
                0x0000000008012f40       0x1c /tmp/ch.elf.PrlmSi.ltrans1.ltrans.o
 .rodata.cmd_tree.str1.4
                0x0000000008012f5c       0xb1 /tmp/ch.elf.PrlmSi.ltrans1.ltrans.o
 *fill*         0x000000000801300d        0x3 
 .rodata.rt_test_012_007_execute.lto_priv.0.str1.4
                0x0000000008013010       0x11 /tmp/ch.elf.PrlmSi.ltrans1.ltrans.o
 *fill*         0x0000000008013021        0x3 
 .rodata.rt_test_012_009_execute.lto_priv.0.str1.4
                0x0000000008013024        0xa /tmp/ch.elf.PrlmSi.ltrans1.ltrans.o
 *fill*         0x000000000801302e        0x2 
 .rodata.main.str1.4
                0x0000000008013030        0x5 /tmp/ch.elf.PrlmSi.ltrans1.ltrans.o
                                          0xe (size before relaxing)
 *fill*         0x0000000008013035        0x3 
 .rodata.oslib_test_003_001_execute.lto_priv.0.str1.4
                0x0000000008013038       0x33 /tmp/ch.elf.PrlmSi.ltrans1.ltrans.o
 *fill*         0x000000000801306b        0x1 
 .rodata.test_execute_inner.isra.0.str1.4
                0x000000000801306c      0x1a3 /tmp/ch.elf.PrlmSi.ltrans1.ltrans.o
                                        0x1e7 (size before relaxing)
 *fill*         0x000000000801320f        0x1 
 .rodata.str1.4
                0x0000000008013210        0xb /tmp/ch.elf.PrlmSi.ltrans1.ltrans.o
 *fill*         0x000000000801321b        0x1 
 .rodata.ExCvt  0x000000000801321c       0x80 /tmp/ch.elf.PrlmSi.ltrans1.ltrans.o
 .rodata.LfnOfs
                0x000000000801329c        0xd /tmp/ch.elf.PrlmSi.ltrans1.ltrans.o
 *fill*         0x00000000080132a9        0x3 
 .rodata.ch_core0_cfg
                0x00000000080132ac       0x14 /tmp/ch.elf.PrlmSi.ltrans1.ltrans.o
 .rodata.ch_debug
                0x00000000080132c0       0x2c /tmp/ch.elf.PrlmSi.ltrans1.ltrans.o
 .rodata.commands
                0x00000000080132ec       0x10 /tmp/ch.elf.PrlmSi.ltrans1.ltrans.o
 .rodata.evhndl.1
                0x00000000080132fc        0xc /tmp/ch.elf.PrlmSi.ltrans1.ltrans.o
 .rodata.pipe_pattern
                0x0000000008013308       0x11 /tmp/ch.elf.PrlmSi.ltrans1.ltrans.o
 *fill*         0x0000000008013319        0x3 
 .rodata.sdc_default_cfg
                0x000000000801331c        0x8 /tmp/ch.elf.PrlmSi.ltrans1.ltrans.o
 .rodata.sdc_vmt
                0x0000000008013324       0x24 /tmp/ch.elf.PrlmSi.ltrans1.ltrans.o
 .rodata.serusbcfg
                0x0000000008013348        0x8 /tmp/ch.elf.PrlmSi.ltrans1.ltrans.o
 .rodata.shell_cfg1
                0x0000000008013350        0x8 /tmp/ch.elf.PrlmSi.ltrans1.ltrans.o
 .rodata.usbcfg
                0x0000000008013358       0x10 /tmp/ch.elf.PrlmSi.ltrans1.ltrans.o
 .rodata.vmt    0x0000000008013368       0x28 /tmp/ch.elf.PrlmSi.ltrans1.ltrans.o
                0x0000000008013390                . = ALIGN (0x4)
                0x0000000008013390                __rodata_end__ = .

.rel.dyn        0x0000000008013390        0x0
 .rel.iplt      0x0000000008013390        0x0 ./build/obj/crt0_v7m.o

.ARM.extab
 *(.ARM.extab* .gnu.linkonce.armextab.*)

.ARM.exidx      0x0000000008013390        0x0
                0x0000000008013390                __exidx_base__ = .
                0x0000000008013390                __exidx_start = .
 *(.ARM.exidx* .gnu.linkonce.armexidx.*)
                0x0000000008013390                __exidx_end__ = .
                0x0000000008013390                __exidx_end = .

.eh_frame_hdr
 *(.eh_frame_hdr)

.eh_frame
 *(.eh_frame)

.data           0x0000000020000800       0xe4 load address 0x0000000008013390
                [!provide]                        PROVIDE (_textdata = LOADADDR (.data))
                [!provide]                        PROVIDE (_data = .)
                0x0000000008013390                __textdata_base__ = LOADADDR (.data)
                0x0000000020000800                __data_base__ = .
 *(.data)
 *(.data.*)
 .data.c1       0x0000000020000800        0x8 /tmp/ch.elf.PrlmSi.ltrans0.ltrans.o
 .data.es1      0x0000000020000808        0x4 /tmp/ch.elf.PrlmSi.ltrans0.ltrans.o
 .data.es2      0x000000002000080c        0x4 /tmp/ch.elf.PrlmSi.ltrans0.ltrans.o
 .data.linecoding
                0x0000000020000810        0x7 /tmp/ch.elf.PrlmSi.ltrans0.ltrans.o
 *fill*         0x0000000020000817        0x1 
 .data.m1       0x0000000020000818       0x10 /tmp/ch.elf.PrlmSi.ltrans0.ltrans.o
 .data.m2       0x0000000020000828       0x10 /tmp/ch.elf.PrlmSi.ltrans0.ltrans.o
 .data.gmp1     0x0000000020000838       0x1c /tmp/ch.elf.PrlmSi.ltrans1.ltrans.o
 .data.mb1      0x0000000020000854       0x28 /tmp/ch.elf.PrlmSi.ltrans1.ltrans.o
 .data.mp1.lto_priv.1
                0x000000002000087c       0x10 /tmp/ch.elf.PrlmSi.ltrans1.ltrans.o
 .data.myobj.0  0x000000002000088c        0x4 /tmp/ch.elf.PrlmSi.ltrans1.ltrans.o
 .data.myobj.1  0x0000000020000890        0x4 /tmp/ch.elf.PrlmSi.ltrans1.ltrans.o
 .data.pipe1    0x0000000020000894       0x50 /tmp/ch.elf.PrlmSi.ltrans1.ltrans.o
 *(.ramtext)
                0x00000000200008e4                . = ALIGN (0x4)
                [!provide]                        PROVIDE (_edata = .)
                0x00000000200008e4                __data_end__ = .

.igot.plt       0x00000000200008e4        0x0 load address 0x0000000008013474
 .igot.plt      0x00000000200008e4        0x0 ./build/obj/crt0_v7m.o

.bss            0x00000000200008e8     0x2528 load address 0x0000000008013474
                0x00000000200008e8                __bss_base__ = .
 *(.bss)
 *(.bss.*)
 .bss.SDCD1     0x00000000200008e8      0x24c /tmp/ch.elf.PrlmSi.ltrans0.ltrans.o
                0x00000000200008e8                SDCD1
 .bss.SDU1      0x0000000020000b34      0x490 /tmp/ch.elf.PrlmSi.ltrans0.ltrans.o
                0x0000000020000b34                SDU1
 .bss.USBD1     0x0000000020000fc4       0x88 /tmp/ch.elf.PrlmSi.ltrans0.ltrans.o
                0x0000000020000fc4                USBD1
 *fill*         0x000000002000104c        0x4 
 .bss.ch0       0x0000000020001050       0x90 /tmp/ch.elf.PrlmSi.ltrans0.ltrans.o
                0x0000000020001050                ch0
 .bss.ch_memcore
                0x00000000200010e0        0x8 /tmp/ch.elf.PrlmSi.ltrans0.ltrans.o
                0x00000000200010e0                ch_memcore
 .bss.ch_system
                0x00000000200010e8        0xc /tmp/ch.elf.PrlmSi.ltrans0.ltrans.o
                0x00000000200010e8                ch_system
 .bss.chtest    0x00000000200010f4       0x28 /tmp/ch.elf.PrlmSi.ltrans0.ltrans.o
                0x00000000200010f4                chtest
 .bss.default_heap.lto_priv.0
                0x000000002000111c       0x24 /tmp/ch.elf.PrlmSi.ltrans0.ltrans.o
                0x000000002000111c                default_heap.lto_priv.0
 .bss.dma.lto_priv.0
                0x0000000020001140       0x68 /tmp/ch.elf.PrlmSi.ltrans0.ltrans.o
                0x0000000020001140                dma.lto_priv.0
 .bss.ep0_state.lto_priv.0
                0x00000000200011a8       0x10 /tmp/ch.elf.PrlmSi.ltrans0.ltrans.o
                0x00000000200011a8                ep0_state.lto_priv.0
 .bss.ep0setup_buffer.lto_priv.0
                0x00000000200011b8        0x8 /tmp/ch.elf.PrlmSi.ltrans0.ltrans.o
                0x00000000200011b8                ep0setup_buffer.lto_priv.0
 .bss.ep1instate
                0x00000000200011c0       0x10 /tmp/ch.elf.PrlmSi.ltrans0.ltrans.o
 .bss.ep1outstate
                0x00000000200011d0       0x10 /tmp/ch.elf.PrlmSi.ltrans0.ltrans.o
 .bss.ep2instate
                0x00000000200011e0       0x10 /tmp/ch.elf.PrlmSi.ltrans0.ltrans.o
 .bss.heap1     0x00000000200011f0       0x24 /tmp/ch.elf.PrlmSi.ltrans0.ltrans.o
 .bss.mp1.lto_priv.0
                0x0000000020001214       0x10 /tmp/ch.elf.PrlmSi.ltrans0.ltrans.o
                0x0000000020001214                mp1.lto_priv.0
 .bss.sem1.lto_priv.0
                0x0000000020001224        0xc /tmp/ch.elf.PrlmSi.ltrans0.ltrans.o
                0x0000000020001224                sem1.lto_priv.0
 .bss.sem1.lto_priv.1
                0x0000000020001230        0xc /tmp/ch.elf.PrlmSi.ltrans0.ltrans.o
                0x0000000020001230                sem1.lto_priv.1
 .bss.shell_terminated
                0x000000002000123c        0x4 /tmp/ch.elf.PrlmSi.ltrans0.ltrans.o
                0x000000002000123c                shell_terminated
 .bss.test_buffer
                0x0000000020001240      0x870 /tmp/ch.elf.PrlmSi.ltrans0.ltrans.o
                0x0000000020001240                test_buffer
 .bss.threads   0x0000000020001ab0       0x14 /tmp/ch.elf.PrlmSi.ltrans0.ltrans.o
                0x0000000020001ab0                threads
 .bss.tr1       0x0000000020001ac4        0x4 /tmp/ch.elf.PrlmSi.ltrans0.ltrans.o
 .bss.FatFs     0x0000000020001ac8        0x4 /tmp/ch.elf.PrlmSi.ltrans1.ltrans.o
 .bss.Fsid      0x0000000020001acc        0x2 /tmp/ch.elf.PrlmSi.ltrans1.ltrans.o
 *fill*         0x0000000020001ace        0x2 
 .bss.SDC_FS    0x0000000020001ad0      0x23c /tmp/ch.elf.PrlmSi.ltrans1.ltrans.o
 .bss.buffer    0x0000000020001d0c       0x10 /tmp/ch.elf.PrlmSi.ltrans1.ltrans.o
 .bss.cache1    0x0000000020001d1c       0x44 /tmp/ch.elf.PrlmSi.ltrans1.ltrans.o
 .bss.ch_c0_idle_thread_wa
                0x0000000020001d60      0x130 /tmp/ch.elf.PrlmSi.ltrans1.ltrans.o
 .bss.ch_factory
                0x0000000020001e90       0x48 /tmp/ch.elf.PrlmSi.ltrans1.ltrans.o
 .bss.cnt       0x0000000020001ed8        0x4 /tmp/ch.elf.PrlmSi.ltrans1.ltrans.o
 .bss.exit_flag
                0x0000000020001edc        0x1 /tmp/ch.elf.PrlmSi.ltrans1.ltrans.o
 *fill*         0x0000000020001edd        0x3 
 .bss.fbuff     0x0000000020001ee0      0x400 /tmp/ch.elf.PrlmSi.ltrans1.ltrans.o
 .bss.fno.0     0x00000000200022e0      0x120 /tmp/ch.elf.PrlmSi.ltrans1.ltrans.o
 .bss.fs_ready  0x0000000020002400        0x1 /tmp/ch.elf.PrlmSi.ltrans1.ltrans.o
 *fill*         0x0000000020002401        0x3 
 .bss.hash_headers
                0x0000000020002404       0x40 /tmp/ch.elf.PrlmSi.ltrans1.ltrans.o
 .bss.inserted_event
                0x0000000020002444        0x4 /tmp/ch.elf.PrlmSi.ltrans1.ltrans.o
 .bss.jobs      0x0000000020002448       0x20 /tmp/ch.elf.PrlmSi.ltrans1.ltrans.o
 .bss.jq        0x0000000020002468       0x44 /tmp/ch.elf.PrlmSi.ltrans1.ltrans.o
 .bss.mb_buffer
                0x00000000200024ac       0x10 /tmp/ch.elf.PrlmSi.ltrans1.ltrans.o
 .bss.msg_queue
                0x00000000200024bc       0x10 /tmp/ch.elf.PrlmSi.ltrans1.ltrans.o
 .bss.mtx1      0x00000000200024cc       0x10 /tmp/ch.elf.PrlmSi.ltrans1.ltrans.o
 .bss.objects.lto_priv.0
                0x00000000200024dc       0xf0 /tmp/ch.elf.PrlmSi.ltrans1.ltrans.o
 .bss.objects.lto_priv.1
                0x00000000200025cc       0x10 /tmp/ch.elf.PrlmSi.ltrans1.ltrans.o
 .bss.removed_event
                0x00000000200025dc        0x4 /tmp/ch.elf.PrlmSi.ltrans1.ltrans.o
 .bss.shelltp   0x00000000200025e0        0x4 /tmp/ch.elf.PrlmSi.ltrans1.ltrans.o
 .bss.test_heap
                0x00000000200025e4       0x24 /tmp/ch.elf.PrlmSi.ltrans1.ltrans.o
 .bss.test_heap_buffer
                0x0000000020002608       0x80 /tmp/ch.elf.PrlmSi.ltrans1.ltrans.o
 .bss.tmr       0x0000000020002688       0x18 /tmp/ch.elf.PrlmSi.ltrans1.ltrans.o
 .bss.vt1.1     0x00000000200026a0       0x18 /tmp/ch.elf.PrlmSi.ltrans1.ltrans.o
 .bss.vt2.0     0x00000000200026b8       0x18 /tmp/ch.elf.PrlmSi.ltrans1.ltrans.o
 .bss.wa1Thread1
                0x00000000200026d0      0x1f0 /tmp/ch.elf.PrlmSi.ltrans1.ltrans.o
 .bss.wa2Thread1
                0x00000000200028c0      0x1f0 /tmp/ch.elf.PrlmSi.ltrans1.ltrans.o
 .bss.waThread1.lto_priv.0
                0x0000000020002ab0      0x1f0 /tmp/ch.elf.PrlmSi.ltrans1.ltrans.o
 .bss.waThread1.lto_priv.1
                0x0000000020002ca0      0x170 /tmp/ch.elf.PrlmSi.ltrans1.ltrans.o
 *(COMMON)
                0x0000000020002e10                . = ALIGN (0x4)
                0x0000000020002e10                __bss_end__ = .
                [!provide]                        PROVIDE (end = .)
                0x0000000020000000                __ram0_base__ = ORIGIN (ram0)
                0x0000000000018000                __ram0_size__ = LENGTH (ram0)
                0x0000000020018000                __ram0_end__ = (__ram0_base__ + __ram0_size__)
                0x0000000000000000                __ram1_base__ = ORIGIN (ram1)
                0x0000000000000000                __ram1_size__ = LENGTH (ram1)
                0x0000000000000000                __ram1_end__ = (__ram1_base__ + __ram1_size__)
                0x0000000000000000                __ram2_base__ = ORIGIN (ram2)
                0x0000000000000000                __ram2_size__ = LENGTH (ram2)
                0x0000000000000000                __ram2_end__ = (__ram2_base__ + __ram2_size__)
                0x0000000000000000                __ram3_base__ = ORIGIN (ram3)
                0x0000000000000000                __ram3_size__ = LENGTH (ram3)
                0x0000000000000000                __ram3_end__ = (__ram3_base__ + __ram3_size__)
                0x0000000000000000                __ram4_base__ = ORIGIN (ram4)
                0x0000000000000000                __ram4_size__ = LENGTH (ram4)
                0x0000000000000000                __ram4_end__ = (__ram4_base__ + __ram4_size__)
                0x0000000000000000                __ram5_base__ = ORIGIN (ram5)
                0x0000000000000000                __ram5_size__ = LENGTH (ram5)
                0x0000000000000000                __ram5_end__ = (__ram5_base__ + __ram5_size__)
                0x0000000000000000                __ram6_base__ = ORIGIN (ram6)
                0x0000000000000000                __ram6_size__ = LENGTH (ram6)
                0x0000000000000000                __ram6_end__ = (__ram6_base__ + __ram6_size__)
                0x0000000000000000                __ram7_base__ = ORIGIN (ram7)
                0x0000000000000000                __ram7_size__ = LENGTH (ram7)
                0x0000000000000000                __ram7_end__ = (__ram7_base__ + __ram7_size__)
                0x0000000008000000                __flash0_base__ = ORIGIN (flash0)
                0x0000000000100000                __flash0_size__ = LENGTH (flash0)
                0x0000000008100000                __flash0_end__ = (__flash0_base__ + __flash0_size__)
                0x0000000000000000                __flash1_base__ = ORIGIN (flash1)
                0x0000000000000000                __flash1_size__ = LENGTH (flash1)
                0x0000000000000000                __flash1_end__ = (__flash1_base__ + __flash1_size__)
                0x0000000000000000                __flash2_base__ = ORIGIN (flash2)
                0x0000000000000000                __flash2_size__ = LENGTH (flash2)
                0x0000000000000000                __flash2_end__ = (__flash2_base__ + __flash2_size__)
                0x0000000000000000                __flash3_base__ = ORIGIN (flash3)
                0x0000000000000000                __flash3_size__ = LENGTH (flash3)
                0x0000000000000000                __flash3_end__ = (__flash3_base__ + __flash3_size__)
                0x0000000000000000                __flash4_base__ = ORIGIN (flash4)
                0x0000000000000000                __flash4_size__ = LENGTH (flash4)
                0x0000000000000000                __flash4_end__ = (__flash4_base__ + __flash4_size__)
                0x0000000000000000                __flash5_base__ = ORIGIN (flash5)
                0x0000000000000000                __flash5_size__ = LENGTH (flash5)
                0x0000000000000000                __flash5_end__ = (__flash5_base__ + __flash5_size__)
                0x0000000000000000                __flash6_base__ = ORIGIN (flash6)
                0x0000000000000000                __flash6_size__ = LENGTH (flash6)
                0x0000000000000000                __flash6_end__ = (__flash6_base__ + __flash6_size__)
                0x0000000000000000                __flash7_base__ = ORIGIN (flash7)
                0x0000000000000000                __flash7_size__ = LENGTH (flash7)
                0x0000000000000000                __flash7_end__ = (__flash7_base__ + __flash7_size__)

.ram0_init      0x0000000020002e10        0x0 load address 0x0000000008013474
                0x0000000008013474                __ram0_init_text__ = LOADADDR (.ram0_init)
                0x0000000020002e10                __ram0_init__ = .
 *(.ram0_init)
 *(.ram0_init.*)
                0x0000000020002e10                . = ALIGN (0x4)

.ram0           0x0000000020002e10        0x0 load address 0x0000000008013474
                0x0000000020002e10                __ram0_clear__ = .
 *(.ram0_clear)
 *(.ram0_clear.*)
                0x0000000020002e10                . = ALIGN (0x4)
                0x0000000020002e10                __ram0_noinit__ = .
 *(.ram0)
 *(.ram0.*)
                0x0000000020002e10                . = ALIGN (0x4)
                0x0000000020002e10                __ram0_free__ = .

.ram1_init      0x0000000000000000        0x0 load address 0x0000000008013474
                0x0000000008013474                __ram1_init_text__ = LOADADDR (.ram1_init)
                0x0000000000000000                __ram1_init__ = .
 *(.ram1_init)
 *(.ram1_init.*)
                0x0000000000000000                . = ALIGN (0x4)

.ram1           0x0000000000000000        0x0 load address 0x0000000008013474
                0x0000000000000000                __ram1_clear__ = .
 *(.ram1_clear)
 *(.ram1_clear.*)
                0x0000000000000000                . = ALIGN (0x4)
                0x0000000000000000                __ram1_noinit__ = .
 *(.ram1)
 *(.ram1.*)
                0x0000000000000000                . = ALIGN (0x4)
                0x0000000000000000                __ram1_free__ = .

.ram2_init      0x0000000000000000        0x0 load address 0x0000000008013474
                0x0000000008013474                __ram2_init_text__ = LOADADDR (.ram2_init)
                0x0000000000000000                __ram2_init__ = .
 *(.ram2_init)
 *(.ram2_init.*)
                0x0000000000000000                . = ALIGN (0x4)

.ram2           0x0000000000000000        0x0 load address 0x0000000008013474
                0x0000000000000000                __ram2_clear__ = .
 *(.ram2_clear)
 *(.ram2_clear.*)
                0x0000000000000000                . = ALIGN (0x4)
                0x0000000000000000                __ram2_noinit__ = .
 *(.ram2)
 *(.ram2.*)
                0x0000000000000000                . = ALIGN (0x4)
                0x0000000000000000                __ram2_free__ = .

.ram3_init      0x0000000000000000        0x0 load address 0x0000000008013474
                0x0000000008013474                __ram3_init_text__ = LOADADDR (.ram3_init)
                0x0000000000000000                __ram3_init__ = .
 *(.ram3_init)
 *(.ram3_init.*)
                0x0000000000000000                . = ALIGN (0x4)

.ram3           0x0000000000000000        0x0 load address 0x0000000008013474
                0x0000000000000000                __ram3_clear__ = .
 *(.ram3_clear)
 *(.ram3_clear.*)
                0x0000000000000000                . = ALIGN (0x4)
                0x0000000000000000                __ram3_noinit__ = .
 *(.ram3)
 *(.ram3.*)
                0x0000000000000000                . = ALIGN (0x4)
                0x0000000000000000                __ram3_free__ = .

.ram4_init      0x0000000000000000        0x0 load address 0x0000000008013474
                0x0000000008013474                __ram4_init_text__ = LOADADDR (.ram4_init)
                0x0000000000000000                __ram4_init__ = .
 *(.ram4_init)
 *(.ram4_init.*)
                0x0000000000000000                . = ALIGN (0x4)

.ram4           0x0000000000000000        0x0 load address 0x0000000008013474
                0x0000000000000000                __ram4_clear__ = .
 *(.ram4_clear)
 *(.ram4_clear.*)
                0x0000000000000000                . = ALIGN (0x4)
                0x0000000000000000                __ram4_noinit__ = .
 *(.ram4)
 *(.ram4.*)
                0x0000000000000000                . = ALIGN (0x4)
                0x0000000000000000                __ram4_free__ = .

.ram5_init      0x0000000000000000        0x0 load address 0x0000000008013474
                0x0000000008013474                __ram5_init_text__ = LOADADDR (.ram5_init)
                0x0000000000000000                __ram5_init__ = .
 *(.ram5_init)
 *(.ram5_init.*)
                0x0000000000000000                . = ALIGN (0x4)

.ram5           0x0000000000000000        0x0 load address 0x0000000008013474
                0x0000000000000000                __ram5_clear__ = .
 *(.ram5_clear)
 *(.ram5_clear.*)
                0x0000000000000000                . = ALIGN (0x4)
                0x0000000000000000                __ram5_noinit__ = .
 *(.ram5)
 *(.ram5.*)
                0x0000000000000000                . = ALIGN (0x4)
                0x0000000000000000                __ram5_free__ = .

.ram6_init      0x0000000000000000        0x0 load address 0x0000000008013474
                0x0000000008013474                __ram6_init_text__ = LOADADDR (.ram6_init)
                0x0000000000000000                __ram6_init__ = .
 *(.ram6_init)
 *(.ram6_init.*)
                0x0000000000000000                . = ALIGN (0x4)

.ram6           0x0000000000000000        0x0 load address 0x0000000008013474
                0x0000000000000000                __ram6_clear__ = .
 *(.ram6_clear)
 *(.ram6_clear.*)
                0x0000000000000000                . = ALIGN (0x4)
                0x0000000000000000                __ram6_noinit__ = .
 *(.ram6)
 *(.ram6.*)
                0x0000000000000000                . = ALIGN (0x4)
                0x0000000000000000                __ram6_free__ = .

.ram7_init      0x0000000000000000        0x0 load address 0x0000000008013474
                0x0000000008013474                __ram7_init_text__ = LOADADDR (.ram7_init)
                0x0000000000000000                __ram7_init__ = .
 *(.ram7_init)
 *(.ram7_init.*)
                0x0000000000000000                . = ALIGN (0x4)

.ram7           0x0000000000000000        0x0 load address 0x0000000008013474
                0x0000000000000000                __ram7_clear__ = .
 *(.ram7_clear)
 *(.ram7_clear.*)
                0x0000000000000000                . = ALIGN (0x4)
                0x0000000000000000                __ram7_noinit__ = .
 *(.ram7)
 *(.ram7.*)
                0x0000000000000000                . = ALIGN (0x4)
                0x0000000000000000                __ram7_free__ = .

.flash0         0x0000000008013474        0x0
                0x0000000008013474                __flash0_init__ = .
 *(.flash0_init)
 *(.flash0_init.*)
                0x0000000008013474                __flash0_free__ = .

.flash1         0x0000000000000000        0x0
                0x0000000000000000                __flash1_init__ = .
 *(.flash1_init)
 *(.flash1_init.*)
                0x0000000000000000                __flash1_free__ = .

.flash2         0x0000000000000000        0x0
                0x0000000000000000                __flash2_init__ = .
 *(.flash2_init)
 *(.flash2_init.*)
                0x0000000000000000                __flash2_free__ = .

.flash3         0x0000000000000000        0x0
                0x0000000000000000                __flash3_init__ = .
 *(.flash3_init)
 *(.flash3_init.*)
                0x0000000000000000                __flash3_free__ = .

.flash4         0x0000000000000000        0x0
                0x0000000000000000                __flash4_init__ = .
 *(.flash4_init)
 *(.flash4_init.*)
                0x0000000000000000                __flash4_free__ = .

.flash5         0x0000000000000000        0x0
                0x0000000000000000                __flash5_init__ = .
 *(.flash5_init)
 *(.flash5_init.*)
                0x0000000000000000                __flash5_free__ = .

.flash6         0x0000000000000000        0x0
                0x0000000000000000                __flash6_init__ = .
 *(.flash6_init)
 *(.flash6_init.*)
                0x0000000000000000                __flash6_free__ = .

.flash7         0x0000000000000000        0x0
                0x0000000000000000                __flash7_init__ = .
 *(.flash7_init)
 *(.flash7_init.*)
                0x0000000000000000                __flash7_free__ = .

.heap           0x0000000020002e10    0x151f0
                0x0000000020002e10                . = ALIGN (0x8)
                0x0000000020002e10                __heap_base__ = .
                0x0000000020018000                . = (ORIGIN (HEAP_RAM) + LENGTH (HEAP_RAM))
 *fill*         0x0000000020002e10    0x151f0 
                0x0000000020018000                __heap_end__ = .
                0x0000000000000400                __process_stack_size__ = 0x400
                0x0000000000000400                __main_stack_size__ = 0x400
START GROUP
LOAD /usr/lib/gcc/arm-none-eabi/10.3.1/thumb/v7-m/nofp/libgcc.a
LOAD /usr/lib/gcc/arm-none-eabi/10.3.1/../../../arm-none-eabi/lib/thumb/v7-m/nofp/libg.a
LOAD /usr/lib/gcc/arm-none-eabi/10.3.1/../../../arm-none-eabi/lib/thumb/v7-m/nofp/libc.a
END GROUP
OUTPUT(build/ch.elf elf32-littlearm)
LOAD linker stubs

.ARM.attributes
                0x0000000000000000       0x2f
 .ARM.attributes
                0x0000000000000000       0x21 ./build/obj/crt0_v7m.o
 .ARM.attributes
                0x0000000000000021       0x21 ./build/obj/vectors.o
 .ARM.attributes
                0x0000000000000042       0x21 ./build/obj/chcoreasm.o
 .ARM.attributes
                0x0000000000000063       0x2b /tmp/ch.elf.PrlmSi.ltrans0.ltrans.o
 .ARM.attributes
                0x000000000000008e       0x2b /tmp/ch.elf.PrlmSi.ltrans1.ltrans.o
 .ARM.attributes
                0x00000000000000b9       0x2d /usr/lib/gcc/arm-none-eabi/10.3.1/../../../arm-none-eabi/lib/thumb/v7-m/nofp/libg.a(lib_a-memcmp.o)
 .ARM.attributes
                0x00000000000000e6       0x1b /usr/lib/gcc/arm-none-eabi/10.3.1/../../../arm-none-eabi/lib/thumb/v7-m/nofp/libg.a(lib_a-memcpy.o)
 .ARM.attributes
                0x0000000000000101       0x2d /usr/lib/gcc/arm-none-eabi/10.3.1/../../../arm-none-eabi/lib/thumb/v7-m/nofp/libg.a(lib_a-memset.o)
 .ARM.attributes
                0x000000000000012e       0x2d /usr/lib/gcc/arm-none-eabi/10.3.1/../../../arm-none-eabi/lib/thumb/v7-m/nofp/libg.a(lib_a-strchr.o)
 .ARM.attributes
                0x000000000000015b       0x1b /usr/lib/gcc/arm-none-eabi/10.3.1/../../../arm-none-eabi/lib/thumb/v7-m/nofp/libg.a(lib_a-strcmp.o)
 .ARM.attributes
                0x0000000000000176       0x2d /usr/lib/gcc/arm-none-eabi/10.3.1/../../../arm-none-eabi/lib/thumb/v7-m/nofp/libg.a(lib_a-strcpy.o)
 .ARM.attributes
                0x00000000000001a3       0x2d /usr/lib/gcc/arm-none-eabi/10.3.1/../../../arm-none-eabi/lib/thumb/v7-m/nofp/libg.a(lib_a-strlen-stub.o)
 .ARM.attributes
                0x00000000000001d0       0x2d /usr/lib/gcc/arm-none-eabi/10.3.1/../../../arm-none-eabi/lib/thumb/v7-m/nofp/libg.a(lib_a-strncmp.o)
 .ARM.attributes
                0x00000000000001fd       0x2d /usr/lib/gcc/arm-none-eabi/10.3.1/../../../arm-none-eabi/lib/thumb/v7-m/nofp/libg.a(lib_a-strpbrk.o)
 .ARM.attributes
                0x000000000000022a       0x2d /usr/lib/gcc/arm-none-eabi/10.3.1/../../../arm-none-eabi/lib/thumb/v7-m/nofp/libg.a(lib_a-strspn.o)

.comment        0x0000000000000000       0x33
 .comment       0x0000000000000000       0x33 /tmp/ch.elf.PrlmSi.ltrans0.ltrans.o
                                         0x34 (size before relaxing)
 .comment       0x0000000000000033       0x34 /tmp/ch.elf.PrlmSi.ltrans1.ltrans.o
 .comment       0x0000000000000033       0x34 /usr/lib/gcc/arm-none-eabi/10.3.1/../../../arm-none-eabi/lib/thumb/v7-m/nofp/libg.a(lib_a-memcmp.o)
 .comment       0x0000000000000033       0x34 /usr/lib/gcc/arm-none-eabi/10.3.1/../../../arm-none-eabi/lib/thumb/v7-m/nofp/libg.a(lib_a-memset.o)
 .comment       0x0000000000000033       0x34 /usr/lib/gcc/arm-none-eabi/10.3.1/../../../arm-none-eabi/lib/thumb/v7-m/nofp/libg.a(lib_a-strchr.o)
 .comment       0x0000000000000033       0x34 /usr/lib/gcc/arm-none-eabi/10.3.1/../../../arm-none-eabi/lib/thumb/v7-m/nofp/libg.a(lib_a-strcpy.o)
 .comment       0x0000000000000033       0x34 /usr/lib/gcc/arm-none-eabi/10.3.1/../../../arm-none-eabi/lib/thumb/v7-m/nofp/libg.a(lib_a-strlen-stub.o)
 .comment       0x0000000000000033       0x34 /usr/lib/gcc/arm-none-eabi/10.3.1/../../../arm-none-eabi/lib/thumb/v7-m/nofp/libg.a(lib_a-strncmp.o)
 .comment       0x0000000000000033       0x34 /usr/lib/gcc/arm-none-eabi/10.3.1/../../../arm-none-eabi/lib/thumb/v7-m/nofp/libg.a(lib_a-strpbrk.o)
 .comment       0x0000000000000033       0x34 /usr/lib/gcc/arm-none-eabi/10.3.1/../../../arm-none-eabi/lib/thumb/v7-m/nofp/libg.a(lib_a-strspn.o)

.debug_line     0x0000000000000000    0x33ffd
 .debug_line    0x0000000000000000       0xc7 ./build/obj/crt0_v7m.o
 .debug_line    0x00000000000000c7       0x6f ./build/obj/vectors.o
 .debug_line    0x0000000000000136       0x81 ./build/obj/chcoreasm.o
 .debug_line    0x00000000000001b7    0x1934f /tmp/ch.elf.PrlmSi.ltrans0.ltrans.o
 .debug_line    0x0000000000019506    0x11bc4 /tmp/ch.elf.PrlmSi.ltrans1.ltrans.o
 .debug_line    0x000000000002b0ca       0x8e /tmp/ccT7arii.debug.temp.o
 .debug_line    0x000000000002b158       0xcf /tmp/cc7Dx78F.debug.temp.o
 .debug_line    0x000000000002b227      0x106 /tmp/ccpCv5ZY.debug.temp.o
 .debug_line    0x000000000002b32d      0x195 /tmp/ccKSzdhF.debug.temp.o
 .debug_line    0x000000000002b4c2       0xbb /tmp/ccRslxbw.debug.temp.o
 .debug_line    0x000000000002b57d      0x2a0 /tmp/ccvhYQeJ.debug.temp.o
 .debug_line    0x000000000002b81d      0x26f /tmp/ccQl7Knk.debug.temp.o
 .debug_line    0x000000000002ba8c      0x1b7 /tmp/ccWtP7U3.debug.temp.o
 .debug_line    0x000000000002bc43       0xbe /tmp/cchT0WqU.debug.temp.o
 .debug_line    0x000000000002bd01       0x88 /tmp/ccrDuezY.debug.temp.o
 .debug_line    0x000000000002bd89       0xde /tmp/cceljwdK.debug.temp.o
 .debug_line    0x000000000002be67      0x18b /tmp/ccZvYFDc.debug.temp.o
 .debug_line    0x000000000002bff2       0xd2 /tmp/ccqovuRI.debug.temp.o
 .debug_line    0x000000000002c0c4      0x290 /tmp/cczzinZ8.debug.temp.o
 .debug_line    0x000000000002c354      0x1aa /tmp/ccDI0WpU.debug.temp.o
 .debug_line    0x000000000002c4fe      0x111 /tmp/ccaaNRgh.debug.temp.o
 .debug_line    0x000000000002c60f      0x27c /tmp/ccSK4oVX.debug.temp.o
 .debug_line    0x000000000002c88b      0x1dc /tmp/ccGoV6cT.debug.temp.o
 .debug_line    0x000000000002ca67      0x157 /tmp/ccQRzAUa.debug.temp.o
 .debug_line    0x000000000002cbbe      0x1ca /tmp/cclWVjTc.debug.temp.o
 .debug_line    0x000000000002cd88      0x19e /tmp/ccAWails.debug.temp.o
 .debug_line    0x000000000002cf26      0x1bd /tmp/ccjSX2Ob.debug.temp.o
 .debug_line    0x000000000002d0e3      0x1ea /tmp/ccuA8I78.debug.temp.o
 .debug_line    0x000000000002d2cd      0x19b /tmp/cc83udby.debug.temp.o
 .debug_line    0x000000000002d468      0x1cd /tmp/ccrhzjTR.debug.temp.o
 .debug_line    0x000000000002d635      0x1a2 /tmp/ccnnleDx.debug.temp.o
 .debug_line    0x000000000002d7d7      0x1ae /tmp/ccznPcBe.debug.temp.o
 .debug_line    0x000000000002d985      0x1bb /tmp/cc1ZRlzA.debug.temp.o
 .debug_line    0x000000000002db40      0x1b3 /tmp/ccbebI6x.debug.temp.o
 .debug_line    0x000000000002dcf3      0x1ad /tmp/cc6XSnw1.debug.temp.o
 .debug_line    0x000000000002dea0      0x20c /tmp/ccUGMPYj.debug.temp.o
 .debug_line    0x000000000002e0ac      0x16d /tmp/ccB9BqGy.debug.temp.o
 .debug_line    0x000000000002e219      0x14b /tmp/cc16Z52C.debug.temp.o
 .debug_line    0x000000000002e364      0x1a9 /tmp/ccTQhJCg.debug.temp.o
 .debug_line    0x000000000002e50d      0x17c /tmp/cc9QLLBY.debug.temp.o
 .debug_line    0x000000000002e689      0x1cb /tmp/cclNzKC6.debug.temp.o
 .debug_line    0x000000000002e854      0x163 /tmp/cc4HGXfh.debug.temp.o
 .debug_line    0x000000000002e9b7      0x1ec /tmp/cc17rajW.debug.temp.o
 .debug_line    0x000000000002eba3      0x1d1 /tmp/ccRiTwwv.debug.temp.o
 .debug_line    0x000000000002ed74      0x1b9 /tmp/cc5lXbZN.debug.temp.o
 .debug_line    0x000000000002ef2d      0x249 /tmp/ccuevhAF.debug.temp.o
 .debug_line    0x000000000002f176      0x101 /tmp/ccKQFrOn.debug.temp.o
 .debug_line    0x000000000002f277      0x216 /tmp/cc4LIRGU.debug.temp.o
 .debug_line    0x000000000002f48d      0x2ac /tmp/ccrDQ5b5.debug.temp.o
 .debug_line    0x000000000002f739      0x274 /tmp/ccLQr75t.debug.temp.o
 .debug_line    0x000000000002f9ad      0x1db /tmp/cco7DiDy.debug.temp.o
 .debug_line    0x000000000002fb88       0x8a /tmp/ccrmSd52.debug.temp.o
 .debug_line    0x000000000002fc12       0x85 /tmp/cckD8sv3.debug.temp.o
 .debug_line    0x000000000002fc97      0x143 /tmp/cc0mLl4C.debug.temp.o
 .debug_line    0x000000000002fdda      0x116 /tmp/ccndXnHi.debug.temp.o
 .debug_line    0x000000000002fef0      0x358 /tmp/ccZVzhNQ.debug.temp.o
 .debug_line    0x0000000000030248      0x124 /tmp/ccpaeRfq.debug.temp.o
 .debug_line    0x000000000003036c      0x1fc /tmp/cc6Ykh7P.debug.temp.o
 .debug_line    0x0000000000030568      0x168 /tmp/cc95wmnE.debug.temp.o
 .debug_line    0x00000000000306d0      0x1dd /tmp/cc2TUhek.debug.temp.o
 .debug_line    0x00000000000308ad      0x27a /tmp/ccyC6ugg.debug.temp.o
 .debug_line    0x0000000000030b27      0x27a /tmp/ccrWm1Fa.debug.temp.o
 .debug_line    0x0000000000030da1      0x28e /tmp/cczbmG7z.debug.temp.o
 .debug_line    0x000000000003102f      0x24e /tmp/cc3JqDqz.debug.temp.o
 .debug_line    0x000000000003127d      0x24d /tmp/cc70tGEa.debug.temp.o
 .debug_line    0x00000000000314ca      0x276 /tmp/ccBK22k5.debug.temp.o
 .debug_line    0x0000000000031740      0x25f /tmp/ccYOR9Q0.debug.temp.o
 .debug_line    0x000000000003199f      0x285 /tmp/cc1MHbQA.debug.temp.o
 .debug_line    0x0000000000031c24      0x1c9 /tmp/ccnJMe5U.debug.temp.o
 .debug_line    0x0000000000031ded      0x12d /tmp/ccPT081o.debug.temp.o
 .debug_line    0x0000000000031f1a      0x218 /tmp/cc5jkqLx.debug.temp.o
 .debug_line    0x0000000000032132      0x209 /tmp/ccJDBeky.debug.temp.o
 .debug_line    0x000000000003233b      0x24f /tmp/ccMW8lyt.debug.temp.o
 .debug_line    0x000000000003258a      0x227 /tmp/ccZHfhgS.debug.temp.o
 .debug_line    0x00000000000327b1      0x1e5 /tmp/ccSwjcvb.debug.temp.o
 .debug_line    0x0000000000032996      0x18a /tmp/ccNSyn7G.debug.temp.o
 .debug_line    0x0000000000032b20      0x22c /tmp/ccjzDEYI.debug.temp.o
 .debug_line    0x0000000000032d4c      0x255 /tmp/ccOZAkil.debug.temp.o
 .debug_line    0x0000000000032fa1      0x3ef /tmp/cchujncb.debug.temp.o
 .debug_line    0x0000000000033390      0x17a /usr/lib/gcc/arm-none-eabi/10.3.1/../../../arm-none-eabi/lib/thumb/v7-m/nofp/libg.a(lib_a-memcmp.o)
 .debug_line    0x000000000003350a       0xc1 /usr/lib/gcc/arm-none-eabi/10.3.1/../../../arm-none-eabi/lib/thumb/v7-m/nofp/libg.a(lib_a-memcpy.o)
 .debug_line    0x00000000000335cb      0x1bf /usr/lib/gcc/arm-none-eabi/10.3.1/../../../arm-none-eabi/lib/thumb/v7-m/nofp/libg.a(lib_a-memset.o)
 .debug_line    0x000000000003378a      0x1b0 /usr/lib/gcc/arm-none-eabi/10.3.1/../../../arm-none-eabi/lib/thumb/v7-m/nofp/libg.a(lib_a-strchr.o)
 .debug_line    0x000000000003393a      0x106 /usr/lib/gcc/arm-none-eabi/10.3.1/../../../arm-none-eabi/lib/thumb/v7-m/nofp/libg.a(lib_a-strcmp.o)
 .debug_line    0x0000000000033a40       0xb9 /usr/lib/gcc/arm-none-eabi/10.3.1/../../../arm-none-eabi/lib/thumb/v7-m/nofp/libg.a(lib_a-strcpy.o)
 .debug_line    0x0000000000033af9       0xf4 /usr/lib/gcc/arm-none-eabi/10.3.1/../../../arm-none-eabi/lib/thumb/v7-m/nofp/libg.a(lib_a-strlen-stub.o)
 .debug_line    0x0000000000033bed      0x1d3 /usr/lib/gcc/arm-none-eabi/10.3.1/../../../arm-none-eabi/lib/thumb/v7-m/nofp/libg.a(lib_a-strncmp.o)
 .debug_line    0x0000000000033dc0      0x107 /usr/lib/gcc/arm-none-eabi/10.3.1/../../../arm-none-eabi/lib/thumb/v7-m/nofp/libg.a(lib_a-strpbrk.o)
 .debug_line    0x0000000000033ec7      0x136 /usr/lib/gcc/arm-none-eabi/10.3.1/../../../arm-none-eabi/lib/thumb/v7-m/nofp/libg.a(lib_a-strspn.o)

.debug_info     0x0000000000000000    0x6f157
 .debug_info    0x0000000000000000       0x26 ./build/obj/crt0_v7m.o
 .debug_info    0x0000000000000026       0x26 ./build/obj/vectors.o
 .debug_info    0x000000000000004c       0x26 ./build/obj/chcoreasm.o
 .debug_info    0x0000000000000072    0x21f9d /tmp/ch.elf.PrlmSi.ltrans0.ltrans.o
 .debug_info    0x000000000002200f    0x1b6e7 /tmp/ch.elf.PrlmSi.ltrans1.ltrans.o
 .debug_info    0x000000000003d6f6      0x2bc /tmp/ccT7arii.debug.temp.o
                0x000000000003d6f6                crt1.c.08790120
 .debug_info    0x000000000003d9b2      0x156 /tmp/cc7Dx78F.debug.temp.o
                0x000000000003d9b2                hal.c.7c5abb53
 .debug_info    0x000000000003db08      0x315 /tmp/ccpCv5ZY.debug.temp.o
                0x000000000003db08                hal_st.c.8f058c89
 .debug_info    0x000000000003de1d      0x8da /tmp/ccKSzdhF.debug.temp.o
                0x000000000003de1d                hal_buffers.c.bab71f21
 .debug_info    0x000000000003e6f7      0xb94 /tmp/ccRslxbw.debug.temp.o
                0x000000000003e6f7                hal_mmcsd.c.a3e5516a
 .debug_info    0x000000000003f28b     0x148d /tmp/ccvhYQeJ.debug.temp.o
                0x000000000003f28b                hal_sdc.c.47bc0c49
 .debug_info    0x0000000000040718     0x16d3 /tmp/ccQl7Knk.debug.temp.o
                0x0000000000040718                hal_serial_usb.c.eea62b08
 .debug_info    0x0000000000041deb      0xb9a /tmp/ccWtP7U3.debug.temp.o
                0x0000000000041deb                hal_usb.c.a34b62fa
 .debug_info    0x0000000000042985      0x4a4 /tmp/cchT0WqU.debug.temp.o
                0x0000000000042985                nvic.c.d1c4cbac
 .debug_info    0x0000000000042e29      0x236 /tmp/ccrDuezY.debug.temp.o
                0x0000000000042e29                stm32_isr.c.a27a2cc7
 .debug_info    0x000000000004305f      0x28f /tmp/cceljwdK.debug.temp.o
                0x000000000004305f                hal_lld.c.98787996
 .debug_info    0x00000000000432ee      0x5aa /tmp/ccZvYFDc.debug.temp.o
                0x00000000000432ee                stm32_dma.c.ec667b1c
 .debug_info    0x0000000000043898      0x34a /tmp/ccqovuRI.debug.temp.o
                0x0000000000043898                hal_pal_lld.c.8a78d511
 .debug_info    0x0000000000043be2     0x1508 /tmp/cczzinZ8.debug.temp.o
                0x0000000000043be2                hal_sdc_lld.c.0ae3cb95
 .debug_info    0x00000000000450ea      0x387 /tmp/ccDI0WpU.debug.temp.o
                0x00000000000450ea                hal_st_lld.c.08ef28af
 .debug_info    0x0000000000045471      0xc7b /tmp/ccaaNRgh.debug.temp.o
                0x0000000000045471                hal_usb_lld.c.b3240b9b
 .debug_info    0x00000000000460ec      0xe52 /tmp/ccSK4oVX.debug.temp.o
                0x00000000000460ec                board.c.9befe7cd
 .debug_info    0x0000000000046f3e      0xd80 /tmp/ccGoV6cT.debug.temp.o
                0x0000000000046f3e                chsys.c.9e4a00ee
 .debug_info    0x0000000000047cbe      0x779 /tmp/ccQRzAUa.debug.temp.o
                0x0000000000047cbe                chrfcu.c.266597f3
 .debug_info    0x0000000000048437      0xe10 /tmp/cclWVjTc.debug.temp.o
                0x0000000000048437                chvt.c.347267f2
 .debug_info    0x0000000000049247      0xc67 /tmp/ccAWails.debug.temp.o
                0x0000000000049247                chschd.c.0b263881
 .debug_info    0x0000000000049eae      0xbd8 /tmp/ccjSX2Ob.debug.temp.o
                0x0000000000049eae                chinstances.c.640642c4
 .debug_info    0x000000000004aa86     0x1083 /tmp/ccuA8I78.debug.temp.o
                0x000000000004aa86                chthreads.c.24a01076
 .debug_info    0x000000000004bb09      0xad9 /tmp/cc83udby.debug.temp.o
                0x000000000004bb09                chtm.c.600ed623
 .debug_info    0x000000000004c5e2      0xb9e /tmp/ccrhzjTR.debug.temp.o
                0x000000000004c5e2                chregistry.c.b1090db5
 .debug_info    0x000000000004d180      0xb55 /tmp/ccnnleDx.debug.temp.o
                0x000000000004d180                chsem.c.25c7c21d
 .debug_info    0x000000000004dcd5      0xab9 /tmp/ccznPcBe.debug.temp.o
                0x000000000004dcd5                chmtx.c.8d92ae73
 .debug_info    0x000000000004e78e      0xaa4 /tmp/cc1ZRlzA.debug.temp.o
                0x000000000004e78e                chcond.c.6a095e4c
 .debug_info    0x000000000004f232      0xd8b /tmp/ccbebI6x.debug.temp.o
                0x000000000004f232                chevents.c.1b9c01b0
 .debug_info    0x000000000004ffbd      0x942 /tmp/cc6XSnw1.debug.temp.o
                0x000000000004ffbd                chmsg.c.01e0d2fe
 .debug_info    0x00000000000508ff      0xaf8 /tmp/ccUGMPYj.debug.temp.o
                0x00000000000508ff                chdynamic.c.11cf8e10
 .debug_info    0x00000000000513f7      0x5a5 /tmp/ccB9BqGy.debug.temp.o
                0x00000000000513f7                chmboxes.c.ff21a53d
 .debug_info    0x000000000005199c      0x31b /tmp/cc16Z52C.debug.temp.o
                0x000000000005199c                chmemcore.c.69829e73
 .debug_info    0x0000000000051cb7      0xb3e /tmp/ccTQhJCg.debug.temp.o
                0x0000000000051cb7                chmemheaps.c.006f8cfc
 .debug_info    0x00000000000527f5      0x564 /tmp/cc9QLLBY.debug.temp.o
                0x00000000000527f5                chmempools.c.3bafb48a
 .debug_info    0x0000000000052d59      0xaba /tmp/cclNzKC6.debug.temp.o
                0x0000000000052d59                chpipes.c.43e3de60
 .debug_info    0x0000000000053813      0x64c /tmp/cc4HGXfh.debug.temp.o
                0x0000000000053813                chobjcaches.c.ec079792
 .debug_info    0x0000000000053e5f      0xb41 /tmp/cc17rajW.debug.temp.o
                0x0000000000053e5f                chdelegates.c.418623d2
 .debug_info    0x00000000000549a0     0x1328 /tmp/ccRiTwwv.debug.temp.o
                0x00000000000549a0                chfactory.c.40dd61ff
 .debug_info    0x0000000000055cc8      0xf47 /tmp/cc5lXbZN.debug.temp.o
                0x0000000000055cc8                chcore.c.fb17477f
 .debug_info    0x0000000000056c0f     0x12d4 /tmp/ccuevhAF.debug.temp.o
                0x0000000000056c0f                usbcfg.c.5ee3b478
 .debug_info    0x0000000000057ee3      0x52f /tmp/ccKQFrOn.debug.temp.o
                0x0000000000057ee3                chprintf.c.1a297c27
 .debug_info    0x0000000000058412      0xc6f /tmp/cc4LIRGU.debug.temp.o
                0x0000000000058412                shell.c.b809e4d7
 .debug_info    0x0000000000059081      0xcb6 /tmp/ccrDQ5b5.debug.temp.o
                0x0000000000059081                shell_cmd.c.bd9e9e37
 .debug_info    0x0000000000059d37      0xe58 /tmp/ccLQr75t.debug.temp.o
                0x0000000000059d37                fatfs_diskio.c.10146b75
 .debug_info    0x000000000005ab8f      0x8cc /tmp/cco7DiDy.debug.temp.o
                0x000000000005ab8f                fatfs_syscall.c.e951e0fa
 .debug_info    0x000000000005b45b     0x1e5e /tmp/ccrmSd52.debug.temp.o
                0x000000000005b45b                ff.c.68f7fee2
 .debug_info    0x000000000005d2b9      0x20a /tmp/cckD8sv3.debug.temp.o
                0x000000000005d2b9                ffunicode.c.c617b10a
 .debug_info    0x000000000005d4c3      0x6bb /tmp/cc0mLl4C.debug.temp.o
                0x000000000005d4c3                ch_test.c.4ca83f21
 .debug_info    0x000000000005db7e      0x47c /tmp/ccndXnHi.debug.temp.o
                0x000000000005db7e                ch_test_printf.c.6372d6af
 .debug_info    0x000000000005dffa      0xa1a /tmp/ccZVzhNQ.debug.temp.o
                0x000000000005dffa                rt_test_root.c.5c4dc21f
 .debug_info    0x000000000005ea14      0x3e0 /tmp/ccpaeRfq.debug.temp.o
                0x000000000005ea14                rt_test_sequence_001.c.f1e3790e
 .debug_info    0x000000000005edf4      0x6fe /tmp/cc6Ykh7P.debug.temp.o
                0x000000000005edf4                rt_test_sequence_002.c.ee471fe6
 .debug_info    0x000000000005f4f2      0x41b /tmp/cc95wmnE.debug.temp.o
                0x000000000005f4f2                rt_test_sequence_003.c.38ac9e22
 .debug_info    0x000000000005f90d      0x53a /tmp/cc2TUhek.debug.temp.o
                0x000000000005f90d                rt_test_sequence_004.c.5c644325
 .debug_info    0x000000000005fe47      0xbb3 /tmp/ccyC6ugg.debug.temp.o
                0x000000000005fe47                rt_test_sequence_005.c.85192de2
 .debug_info    0x00000000000609fa      0xb58 /tmp/ccrWm1Fa.debug.temp.o
                0x00000000000609fa                rt_test_sequence_006.c.66ce5ef8
 .debug_info    0x0000000000061552      0xdf4 /tmp/cczbmG7z.debug.temp.o
                0x0000000000061552                rt_test_sequence_007.c.84b7194f
 .debug_info    0x0000000000062346      0xcea /tmp/cc3JqDqz.debug.temp.o
                0x0000000000062346                rt_test_sequence_008.c.85a482e9
 .debug_info    0x0000000000063030      0xb33 /tmp/cc70tGEa.debug.temp.o
                0x0000000000063030                rt_test_sequence_009.c.b5f34fe8
 .debug_info    0x0000000000063b63      0xe55 /tmp/ccBK22k5.debug.temp.o
                0x0000000000063b63                rt_test_sequence_010.c.c7df3bc6
 .debug_info    0x00000000000649b8      0xd1b /tmp/ccYOR9Q0.debug.temp.o
                0x00000000000649b8                rt_test_sequence_011.c.26f6bd73
 .debug_info    0x00000000000656d3     0x10a7 /tmp/cc1MHbQA.debug.temp.o
                0x00000000000656d3                rt_test_sequence_012.c.099c9cd6
 .debug_info    0x000000000006677a      0x213 /tmp/ccnJMe5U.debug.temp.o
                0x000000000006677a                oslib_test_root.c.6198a6c7
 .debug_info    0x000000000006698d      0x3dd /tmp/ccPT081o.debug.temp.o
                0x000000000006698d                oslib_test_sequence_001.c.fbe74505
 .debug_info    0x0000000000066d6a      0x649 /tmp/cc5jkqLx.debug.temp.o
                0x0000000000066d6a                oslib_test_sequence_002.c.2ab16b9b
 .debug_info    0x00000000000673b3      0xc4a /tmp/ccJDBeky.debug.temp.o
                0x00000000000673b3                oslib_test_sequence_003.c.19f4e4bc
 .debug_info    0x0000000000067ffd      0xeea /tmp/ccMW8lyt.debug.temp.o
                0x0000000000067ffd                oslib_test_sequence_004.c.d84c6135
 .debug_info    0x0000000000068ee7      0xdb1 /tmp/ccZHfhgS.debug.temp.o
                0x0000000000068ee7                oslib_test_sequence_005.c.0a7b40c7
 .debug_info    0x0000000000069c98      0x816 /tmp/ccSwjcvb.debug.temp.o
                0x0000000000069c98                oslib_test_sequence_006.c.baffe27a
 .debug_info    0x000000000006a4ae      0x5ea /tmp/ccNSyn7G.debug.temp.o
                0x000000000006a4ae                oslib_test_sequence_007.c.a7f4bf2e
 .debug_info    0x000000000006aa98      0xbf4 /tmp/ccjzDEYI.debug.temp.o
                0x000000000006aa98                oslib_test_sequence_008.c.9108856c
 .debug_info    0x000000000006b68c     0x10ab /tmp/ccOZAkil.debug.temp.o
                0x000000000006b68c                oslib_test_sequence_009.c.ff8a1c9c
 .debug_info    0x000000000006c737     0x21cf /tmp/cchujncb.debug.temp.o
                0x000000000006c737                main.c.da3cbb5c
 .debug_info    0x000000000006e906      0x138 /usr/lib/gcc/arm-none-eabi/10.3.1/../../../arm-none-eabi/lib/thumb/v7-m/nofp/libg.a(lib_a-memcmp.o)
 .debug_info    0x000000000006ea3e       0x26 /usr/lib/gcc/arm-none-eabi/10.3.1/../../../arm-none-eabi/lib/thumb/v7-m/nofp/libg.a(lib_a-memcpy.o)
 .debug_info    0x000000000006ea64      0x137 /usr/lib/gcc/arm-none-eabi/10.3.1/../../../arm-none-eabi/lib/thumb/v7-m/nofp/libg.a(lib_a-memset.o)
 .debug_info    0x000000000006eb9b      0x13a /usr/lib/gcc/arm-none-eabi/10.3.1/../../../arm-none-eabi/lib/thumb/v7-m/nofp/libg.a(lib_a-strchr.o)
 .debug_info    0x000000000006ecd5       0x26 /usr/lib/gcc/arm-none-eabi/10.3.1/../../../arm-none-eabi/lib/thumb/v7-m/nofp/libg.a(lib_a-strcmp.o)
 .debug_info    0x000000000006ecfb       0xc4 /usr/lib/gcc/arm-none-eabi/10.3.1/../../../arm-none-eabi/lib/thumb/v7-m/nofp/libg.a(lib_a-strcpy.o)
 .debug_info    0x000000000006edbf       0xbc /usr/lib/gcc/arm-none-eabi/10.3.1/../../../arm-none-eabi/lib/thumb/v7-m/nofp/libg.a(lib_a-strlen-stub.o)
 .debug_info    0x000000000006ee7b      0x110 /usr/lib/gcc/arm-none-eabi/10.3.1/../../../arm-none-eabi/lib/thumb/v7-m/nofp/libg.a(lib_a-strncmp.o)
 .debug_info    0x000000000006ef8b       0xda /usr/lib/gcc/arm-none-eabi/10.3.1/../../../arm-none-eabi/lib/thumb/v7-m/nofp/libg.a(lib_a-strpbrk.o)
 .debug_info    0x000000000006f065       0xf2 /usr/lib/gcc/arm-none-eabi/10.3.1/../../../arm-none-eabi/lib/thumb/v7-m/nofp/libg.a(lib_a-strspn.o)

.debug_abbrev   0x0000000000000000     0x98d7
 .debug_abbrev  0x0000000000000000       0x14 ./build/obj/crt0_v7m.o
 .debug_abbrev  0x0000000000000014       0x14 ./build/obj/vectors.o
 .debug_abbrev  0x0000000000000028       0x14 ./build/obj/chcoreasm.o
 .debug_abbrev  0x000000000000003c      0x3c7 /tmp/ch.elf.PrlmSi.ltrans0.ltrans.o
 .debug_abbrev  0x0000000000000403      0x3a6 /tmp/ch.elf.PrlmSi.ltrans1.ltrans.o
 .debug_abbrev  0x00000000000007a9       0xe5 /tmp/ccT7arii.debug.temp.o
 .debug_abbrev  0x000000000000088e       0xa0 /tmp/cc7Dx78F.debug.temp.o
 .debug_abbrev  0x000000000000092e      0x13b /tmp/ccpCv5ZY.debug.temp.o
 .debug_abbrev  0x0000000000000a69      0x1b3 /tmp/ccKSzdhF.debug.temp.o
 .debug_abbrev  0x0000000000000c1c      0x19d /tmp/ccRslxbw.debug.temp.o
 .debug_abbrev  0x0000000000000db9      0x290 /tmp/ccvhYQeJ.debug.temp.o
 .debug_abbrev  0x0000000000001049      0x2e7 /tmp/ccQl7Knk.debug.temp.o
 .debug_abbrev  0x0000000000001330      0x21e /tmp/ccWtP7U3.debug.temp.o
 .debug_abbrev  0x000000000000154e      0x130 /tmp/cchT0WqU.debug.temp.o
 .debug_abbrev  0x000000000000167e       0x5c /tmp/ccrDuezY.debug.temp.o
 .debug_abbrev  0x00000000000016da       0xce /tmp/cceljwdK.debug.temp.o
 .debug_abbrev  0x00000000000017a8      0x189 /tmp/ccZvYFDc.debug.temp.o
 .debug_abbrev  0x0000000000001931      0x10f /tmp/ccqovuRI.debug.temp.o
 .debug_abbrev  0x0000000000001a40      0x2b0 /tmp/cczzinZ8.debug.temp.o
 .debug_abbrev  0x0000000000001cf0      0x118 /tmp/ccDI0WpU.debug.temp.o
 .debug_abbrev  0x0000000000001e08      0x268 /tmp/ccaaNRgh.debug.temp.o
 .debug_abbrev  0x0000000000002070      0x1c2 /tmp/ccSK4oVX.debug.temp.o
 .debug_abbrev  0x0000000000002232      0x2ee /tmp/ccGoV6cT.debug.temp.o
 .debug_abbrev  0x0000000000002520      0x14c /tmp/ccQRzAUa.debug.temp.o
 .debug_abbrev  0x000000000000266c      0x260 /tmp/cclWVjTc.debug.temp.o
 .debug_abbrev  0x00000000000028cc      0x215 /tmp/ccAWails.debug.temp.o
 .debug_abbrev  0x0000000000002ae1      0x218 /tmp/ccjSX2Ob.debug.temp.o
 .debug_abbrev  0x0000000000002cf9      0x28a /tmp/ccuA8I78.debug.temp.o
 .debug_abbrev  0x0000000000002f83      0x1c1 /tmp/cc83udby.debug.temp.o
 .debug_abbrev  0x0000000000003144      0x24e /tmp/ccrhzjTR.debug.temp.o
 .debug_abbrev  0x0000000000003392      0x236 /tmp/ccnnleDx.debug.temp.o
 .debug_abbrev  0x00000000000035c8      0x256 /tmp/ccznPcBe.debug.temp.o
 .debug_abbrev  0x000000000000381e      0x245 /tmp/cc1ZRlzA.debug.temp.o
 .debug_abbrev  0x0000000000003a63      0x250 /tmp/ccbebI6x.debug.temp.o
 .debug_abbrev  0x0000000000003cb3      0x22d /tmp/cc6XSnw1.debug.temp.o
 .debug_abbrev  0x0000000000003ee0      0x1dc /tmp/ccUGMPYj.debug.temp.o
 .debug_abbrev  0x00000000000040bc      0x17d /tmp/ccB9BqGy.debug.temp.o
 .debug_abbrev  0x0000000000004239      0x150 /tmp/cc16Z52C.debug.temp.o
 .debug_abbrev  0x0000000000004389      0x241 /tmp/ccTQhJCg.debug.temp.o
 .debug_abbrev  0x00000000000045ca      0x1b6 /tmp/cc9QLLBY.debug.temp.o
 .debug_abbrev  0x0000000000004780      0x1ea /tmp/cclNzKC6.debug.temp.o
 .debug_abbrev  0x000000000000496a      0x1b9 /tmp/cc4HGXfh.debug.temp.o
 .debug_abbrev  0x0000000000004b23      0x212 /tmp/cc17rajW.debug.temp.o
 .debug_abbrev  0x0000000000004d35      0x22b /tmp/ccRiTwwv.debug.temp.o
 .debug_abbrev  0x0000000000004f60      0x21a /tmp/cc5lXbZN.debug.temp.o
 .debug_abbrev  0x000000000000517a      0x24f /tmp/ccuevhAF.debug.temp.o
 .debug_abbrev  0x00000000000053c9      0x1a6 /tmp/ccKQFrOn.debug.temp.o
 .debug_abbrev  0x000000000000556f      0x263 /tmp/cc4LIRGU.debug.temp.o
 .debug_abbrev  0x00000000000057d2      0x217 /tmp/ccrDQ5b5.debug.temp.o
 .debug_abbrev  0x00000000000059e9      0x1f7 /tmp/ccLQr75t.debug.temp.o
 .debug_abbrev  0x0000000000005be0      0x16f /tmp/cco7DiDy.debug.temp.o
 .debug_abbrev  0x0000000000005d4f      0x184 /tmp/ccrmSd52.debug.temp.o
 .debug_abbrev  0x0000000000005ed3       0xac /tmp/cckD8sv3.debug.temp.o
 .debug_abbrev  0x0000000000005f7f      0x212 /tmp/cc0mLl4C.debug.temp.o
 .debug_abbrev  0x0000000000006191      0x1c2 /tmp/ccndXnHi.debug.temp.o
 .debug_abbrev  0x0000000000006353      0x21b /tmp/ccZVzhNQ.debug.temp.o
 .debug_abbrev  0x000000000000656e      0x168 /tmp/ccpaeRfq.debug.temp.o
 .debug_abbrev  0x00000000000066d6      0x1cd /tmp/cc6Ykh7P.debug.temp.o
 .debug_abbrev  0x00000000000068a3      0x178 /tmp/cc95wmnE.debug.temp.o
 .debug_abbrev  0x0000000000006a1b      0x1de /tmp/cc2TUhek.debug.temp.o
 .debug_abbrev  0x0000000000006bf9      0x273 /tmp/ccyC6ugg.debug.temp.o
 .debug_abbrev  0x0000000000006e6c      0x255 /tmp/ccrWm1Fa.debug.temp.o
 .debug_abbrev  0x00000000000070c1      0x298 /tmp/cczbmG7z.debug.temp.o
 .debug_abbrev  0x0000000000007359      0x267 /tmp/cc3JqDqz.debug.temp.o
 .debug_abbrev  0x00000000000075c0      0x249 /tmp/cc70tGEa.debug.temp.o
 .debug_abbrev  0x0000000000007809      0x29e /tmp/ccBK22k5.debug.temp.o
 .debug_abbrev  0x0000000000007aa7      0x22f /tmp/ccYOR9Q0.debug.temp.o
 .debug_abbrev  0x0000000000007cd6      0x2b4 /tmp/cc1MHbQA.debug.temp.o
 .debug_abbrev  0x0000000000007f8a       0xaf /tmp/ccnJMe5U.debug.temp.o
 .debug_abbrev  0x0000000000008039      0x159 /tmp/ccPT081o.debug.temp.o
 .debug_abbrev  0x0000000000008192      0x1c4 /tmp/cc5jkqLx.debug.temp.o
 .debug_abbrev  0x0000000000008356      0x20a /tmp/ccJDBeky.debug.temp.o
 .debug_abbrev  0x0000000000008560      0x268 /tmp/ccMW8lyt.debug.temp.o
 .debug_abbrev  0x00000000000087c8      0x226 /tmp/ccZHfhgS.debug.temp.o
 .debug_abbrev  0x00000000000089ee      0x1c1 /tmp/ccSwjcvb.debug.temp.o
 .debug_abbrev  0x0000000000008baf      0x18a /tmp/ccNSyn7G.debug.temp.o
 .debug_abbrev  0x0000000000008d39      0x216 /tmp/ccjzDEYI.debug.temp.o
 .debug_abbrev  0x0000000000008f4f      0x1fd /tmp/ccOZAkil.debug.temp.o
 .debug_abbrev  0x000000000000914c      0x300 /tmp/cchujncb.debug.temp.o
 .debug_abbrev  0x000000000000944c       0x8d /usr/lib/gcc/arm-none-eabi/10.3.1/../../../arm-none-eabi/lib/thumb/v7-m/nofp/libg.a(lib_a-memcmp.o)
 .debug_abbrev  0x00000000000094d9       0x14 /usr/lib/gcc/arm-none-eabi/10.3.1/../../../arm-none-eabi/lib/thumb/v7-m/nofp/libg.a(lib_a-memcpy.o)
 .debug_abbrev  0x00000000000094ed       0xb4 /usr/lib/gcc/arm-none-eabi/10.3.1/../../../arm-none-eabi/lib/thumb/v7-m/nofp/libg.a(lib_a-memset.o)
 .debug_abbrev  0x00000000000095a1       0x94 /usr/lib/gcc/arm-none-eabi/10.3.1/../../../arm-none-eabi/lib/thumb/v7-m/nofp/libg.a(lib_a-strchr.o)
 .debug_abbrev  0x0000000000009635       0x14 /usr/lib/gcc/arm-none-eabi/10.3.1/../../../arm-none-eabi/lib/thumb/v7-m/nofp/libg.a(lib_a-strcmp.o)
 .debug_abbrev  0x0000000000009649       0x7b /usr/lib/gcc/arm-none-eabi/10.3.1/../../../arm-none-eabi/lib/thumb/v7-m/nofp/libg.a(lib_a-strcpy.o)
 .debug_abbrev  0x00000000000096c4       0x79 /usr/lib/gcc/arm-none-eabi/10.3.1/../../../arm-none-eabi/lib/thumb/v7-m/nofp/libg.a(lib_a-strlen-stub.o)
 .debug_abbrev  0x000000000000973d       0x8f /usr/lib/gcc/arm-none-eabi/10.3.1/../../../arm-none-eabi/lib/thumb/v7-m/nofp/libg.a(lib_a-strncmp.o)
 .debug_abbrev  0x00000000000097cc       0x7e /usr/lib/gcc/arm-none-eabi/10.3.1/../../../arm-none-eabi/lib/thumb/v7-m/nofp/libg.a(lib_a-strpbrk.o)
 .debug_abbrev  0x000000000000984a       0x8d /usr/lib/gcc/arm-none-eabi/10.3.1/../../../arm-none-eabi/lib/thumb/v7-m/nofp/libg.a(lib_a-strspn.o)

.debug_aranges  0x0000000000000000      0xb60
 .debug_aranges
                0x0000000000000000       0x20 ./build/obj/crt0_v7m.o
 .debug_aranges
                0x0000000000000020       0x20 ./build/obj/vectors.o
 .debug_aranges
                0x0000000000000040       0x20 ./build/obj/chcoreasm.o
 .debug_aranges
                0x0000000000000060      0x670 /tmp/ch.elf.PrlmSi.ltrans0.ltrans.o
 .debug_aranges
                0x00000000000006d0      0x350 /tmp/ch.elf.PrlmSi.ltrans1.ltrans.o
 .debug_aranges
                0x0000000000000a20       0x20 /usr/lib/gcc/arm-none-eabi/10.3.1/../../../arm-none-eabi/lib/thumb/v7-m/nofp/libg.a(lib_a-memcmp.o)
 .debug_aranges
                0x0000000000000a40       0x20 /usr/lib/gcc/arm-none-eabi/10.3.1/../../../arm-none-eabi/lib/thumb/v7-m/nofp/libg.a(lib_a-memcpy.o)
 .debug_aranges
                0x0000000000000a60       0x20 /usr/lib/gcc/arm-none-eabi/10.3.1/../../../arm-none-eabi/lib/thumb/v7-m/nofp/libg.a(lib_a-memset.o)
 .debug_aranges
                0x0000000000000a80       0x20 /usr/lib/gcc/arm-none-eabi/10.3.1/../../../arm-none-eabi/lib/thumb/v7-m/nofp/libg.a(lib_a-strchr.o)
 .debug_aranges
                0x0000000000000aa0       0x20 /usr/lib/gcc/arm-none-eabi/10.3.1/../../../arm-none-eabi/lib/thumb/v7-m/nofp/libg.a(lib_a-strcmp.o)
 .debug_aranges
                0x0000000000000ac0       0x20 /usr/lib/gcc/arm-none-eabi/10.3.1/../../../arm-none-eabi/lib/thumb/v7-m/nofp/libg.a(lib_a-strcpy.o)
 .debug_aranges
                0x0000000000000ae0       0x20 /usr/lib/gcc/arm-none-eabi/10.3.1/../../../arm-none-eabi/lib/thumb/v7-m/nofp/libg.a(lib_a-strlen-stub.o)
 .debug_aranges
                0x0000000000000b00       0x20 /usr/lib/gcc/arm-none-eabi/10.3.1/../../../arm-none-eabi/lib/thumb/v7-m/nofp/libg.a(lib_a-strncmp.o)
 .debug_aranges
                0x0000000000000b20       0x20 /usr/lib/gcc/arm-none-eabi/10.3.1/../../../arm-none-eabi/lib/thumb/v7-m/nofp/libg.a(lib_a-strpbrk.o)
 .debug_aranges
                0x0000000000000b40       0x20 /usr/lib/gcc/arm-none-eabi/10.3.1/../../../arm-none-eabi/lib/thumb/v7-m/nofp/libg.a(lib_a-strspn.o)

.debug_str      0x0000000000000000     0x83ea
 .debug_str     0x0000000000000000       0x99 ./build/obj/crt0_v7m.o
 .debug_str     0x0000000000000099       0x3a ./build/obj/vectors.o
                                         0x98 (size before relaxing)
 .debug_str     0x00000000000000d3       0x3b ./build/obj/chcoreasm.o
                                         0x99 (size before relaxing)
 .debug_str     0x000000000000010e      0x356 /tmp/ch.elf.PrlmSi.ltrans0.ltrans.o
                                        0x3d8 (size before relaxing)
 .debug_str     0x0000000000000464       0x58 /tmp/ch.elf.PrlmSi.ltrans1.ltrans.o
                                        0x316 (size before relaxing)
 .debug_str     0x00000000000004bc      0x3af /tmp/ccT7arii.debug.temp.o
                                        0x469 (size before relaxing)
 .debug_str     0x000000000000086b       0x9e /tmp/cc7Dx78F.debug.temp.o
                                        0x246 (size before relaxing)
 .debug_str     0x0000000000000909      0x138 /tmp/ccpCv5ZY.debug.temp.o
                                        0x2fb (size before relaxing)
 .debug_str     0x0000000000000a41      0x35f /tmp/ccKSzdhF.debug.temp.o
                                        0x563 (size before relaxing)
 .debug_str     0x0000000000000da0      0x43b /tmp/ccRslxbw.debug.temp.o
                                        0x648 (size before relaxing)
 .debug_str     0x00000000000011db      0x75a /tmp/ccvhYQeJ.debug.temp.o
                                        0xbb3 (size before relaxing)
 .debug_str     0x0000000000001935      0x65f /tmp/ccQl7Knk.debug.temp.o
                                        0xd87 (size before relaxing)
 .debug_str     0x0000000000001f94      0x1b4 /tmp/ccWtP7U3.debug.temp.o
                                        0x84e (size before relaxing)
 .debug_str     0x0000000000002148      0x14f /tmp/cchT0WqU.debug.temp.o
                                        0x33a (size before relaxing)
 .debug_str     0x0000000000002297      0x420 /tmp/ccrDuezY.debug.temp.o
                                        0x5d1 (size before relaxing)
 .debug_str     0x00000000000026b7       0xee /tmp/cceljwdK.debug.temp.o
                                        0x2c8 (size before relaxing)
 .debug_str     0x00000000000027a5      0x157 /tmp/ccZvYFDc.debug.temp.o
                                        0x44f (size before relaxing)
 .debug_str     0x00000000000028fc       0x9d /tmp/ccqovuRI.debug.temp.o
                                        0x2fd (size before relaxing)
 .debug_str     0x0000000000002999      0x278 /tmp/cczzinZ8.debug.temp.o
                                        0xbeb (size before relaxing)
 .debug_str     0x0000000000002c11       0x92 /tmp/ccDI0WpU.debug.temp.o
                                        0x370 (size before relaxing)
 .debug_str     0x0000000000002ca3      0x25d /tmp/ccaaNRgh.debug.temp.o
                                        0x875 (size before relaxing)
 .debug_str     0x0000000000002f00       0x6e /tmp/ccSK4oVX.debug.temp.o
                                        0x8f1 (size before relaxing)
 .debug_str     0x0000000000002f6e      0x353 /tmp/ccGoV6cT.debug.temp.o
                                        0x9af (size before relaxing)
 .debug_str     0x00000000000032c1       0x4a /tmp/ccQRzAUa.debug.temp.o
                                        0x5a8 (size before relaxing)
 .debug_str     0x000000000000330b      0x25b /tmp/cclWVjTc.debug.temp.o
                                        0x863 (size before relaxing)
 .debug_str     0x0000000000003566      0x1a5 /tmp/ccAWails.debug.temp.o
                                        0x7ce (size before relaxing)
 .debug_str     0x000000000000370b      0x2a9 /tmp/ccjSX2Ob.debug.temp.o
                                        0x8f8 (size before relaxing)
 .debug_str     0x00000000000039b4      0x2b8 /tmp/ccuA8I78.debug.temp.o
                                        0x929 (size before relaxing)
 .debug_str     0x0000000000003c6c       0x90 /tmp/cc83udby.debug.temp.o
                                        0x7ae (size before relaxing)
 .debug_str     0x0000000000003cfc       0xa1 /tmp/ccrhzjTR.debug.temp.o
                                        0x8a0 (size before relaxing)
 .debug_str     0x0000000000003d9d       0xf2 /tmp/ccnnleDx.debug.temp.o
                                        0x709 (size before relaxing)
 .debug_str     0x0000000000003e8f       0xcd /tmp/ccznPcBe.debug.temp.o
                                        0x6d9 (size before relaxing)
 .debug_str     0x0000000000003f5c       0xf4 /tmp/cc1ZRlzA.debug.temp.o
                                        0x702 (size before relaxing)
 .debug_str     0x0000000000004050      0x1dc /tmp/ccbebI6x.debug.temp.o
                                        0x802 (size before relaxing)
 .debug_str     0x000000000000422c       0x78 /tmp/cc6XSnw1.debug.temp.o
                                        0x663 (size before relaxing)
 .debug_str     0x00000000000042a4       0xcd /tmp/ccUGMPYj.debug.temp.o
                                        0x6ed (size before relaxing)
 .debug_str     0x0000000000004371      0x10e /tmp/ccB9BqGy.debug.temp.o
                                        0x3ad (size before relaxing)
 .debug_str     0x000000000000447f       0xce /tmp/cc16Z52C.debug.temp.o
                                        0x311 (size before relaxing)
 .debug_str     0x000000000000454d       0xde /tmp/ccTQhJCg.debug.temp.o
                                        0x6e3 (size before relaxing)
 .debug_str     0x000000000000462b      0x13c /tmp/cc9QLLBY.debug.temp.o
                                        0x408 (size before relaxing)
 .debug_str     0x0000000000004767       0xbf /tmp/cclNzKC6.debug.temp.o
                                        0x697 (size before relaxing)
 .debug_str     0x0000000000004826      0x1e8 /tmp/cc4HGXfh.debug.temp.o
                                        0x46f (size before relaxing)
 .debug_str     0x0000000000004a0e      0x180 /tmp/cc17rajW.debug.temp.o
                                        0x739 (size before relaxing)
 .debug_str     0x0000000000004b8e      0x481 /tmp/ccRiTwwv.debug.temp.o
                                        0xaee (size before relaxing)
 .debug_str     0x000000000000500f      0x137 /tmp/cc5lXbZN.debug.temp.o
                                        0xc33 (size before relaxing)
 .debug_str     0x0000000000005146      0x143 /tmp/ccuevhAF.debug.temp.o
                                        0xcab (size before relaxing)
 .debug_str     0x0000000000005289      0x12e /tmp/ccKQFrOn.debug.temp.o
                                        0x35e (size before relaxing)
 .debug_str     0x00000000000053b7      0x173 /tmp/cc4LIRGU.debug.temp.o
                                        0x7c7 (size before relaxing)
 .debug_str     0x000000000000552a      0x106 /tmp/ccrDQ5b5.debug.temp.o
                                        0x77f (size before relaxing)
 .debug_str     0x0000000000005630       0xd8 /tmp/ccLQr75t.debug.temp.o
                                        0x8d9 (size before relaxing)
 .debug_str     0x0000000000005708       0x5d /tmp/cco7DiDy.debug.temp.o
                                        0x651 (size before relaxing)
 .debug_str     0x0000000000005765      0x60c /tmp/ccrmSd52.debug.temp.o
                                        0x882 (size before relaxing)
 .debug_str     0x0000000000005d71       0x58 /tmp/cckD8sv3.debug.temp.o
                                        0x22c (size before relaxing)
 .debug_str     0x0000000000005dc9      0x25c /tmp/cc0mLl4C.debug.temp.o
                                        0x576 (size before relaxing)
 .debug_str     0x0000000000006025       0x62 /tmp/ccndXnHi.debug.temp.o
                                        0x383 (size before relaxing)
 .debug_str     0x0000000000006087      0x192 /tmp/ccZVzhNQ.debug.temp.o
                                        0x7d4 (size before relaxing)
 .debug_str     0x0000000000006219       0xeb /tmp/ccpaeRfq.debug.temp.o
                                        0x3de (size before relaxing)
 .debug_str     0x0000000000006304      0x156 /tmp/cc6Ykh7P.debug.temp.o
                                        0x5f3 (size before relaxing)
 .debug_str     0x000000000000645a       0x9f /tmp/cc95wmnE.debug.temp.o
                                        0x3da (size before relaxing)
 .debug_str     0x00000000000064f9       0xa9 /tmp/cc2TUhek.debug.temp.o
                                        0x491 (size before relaxing)
 .debug_str     0x00000000000065a2       0xef /tmp/ccyC6ugg.debug.temp.o
                                        0x834 (size before relaxing)
 .debug_str     0x0000000000006691       0x8d /tmp/ccrWm1Fa.debug.temp.o
                                        0x7d3 (size before relaxing)
 .debug_str     0x000000000000671e      0x2b2 /tmp/cczbmG7z.debug.temp.o
                                        0xa13 (size before relaxing)
 .debug_str     0x00000000000069d0      0x1fe /tmp/cc3JqDqz.debug.temp.o
                                        0x93d (size before relaxing)
 .debug_str     0x0000000000006bce       0x83 /tmp/cc70tGEa.debug.temp.o
                                        0x780 (size before relaxing)
 .debug_str     0x0000000000006c51      0x23d /tmp/ccBK22k5.debug.temp.o
                                        0x9eb (size before relaxing)
 .debug_str     0x0000000000006e8e       0xfd /tmp/ccYOR9Q0.debug.temp.o
                                        0x876 (size before relaxing)
 .debug_str     0x0000000000006f8b      0x2c5 /tmp/cc1MHbQA.debug.temp.o
                                        0xadc (size before relaxing)
 .debug_str     0x0000000000007250      0x121 /tmp/ccnJMe5U.debug.temp.o
                                        0x33c (size before relaxing)
 .debug_str     0x0000000000007371       0xe2 /tmp/ccPT081o.debug.temp.o
                                        0x3fc (size before relaxing)
 .debug_str     0x0000000000007453      0x1a1 /tmp/cc5jkqLx.debug.temp.o
                                        0x59e (size before relaxing)
 .debug_str     0x00000000000075f4      0x106 /tmp/ccJDBeky.debug.temp.o
                                        0x7af (size before relaxing)
 .debug_str     0x00000000000076fa      0x16c /tmp/ccMW8lyt.debug.temp.o
                                        0x90e (size before relaxing)
 .debug_str     0x0000000000007866      0x147 /tmp/ccZHfhgS.debug.temp.o
                                        0x86d (size before relaxing)
 .debug_str     0x00000000000079ad       0xda /tmp/ccSwjcvb.debug.temp.o
                                        0x5a8 (size before relaxing)
 .debug_str     0x0000000000007a87      0x140 /tmp/ccNSyn7G.debug.temp.o
                                        0x52a (size before relaxing)
 .debug_str     0x0000000000007bc7      0x100 /tmp/ccjzDEYI.debug.temp.o
                                        0x810 (size before relaxing)
 .debug_str     0x0000000000007cc7      0x274 /tmp/ccOZAkil.debug.temp.o
                                        0xadc (size before relaxing)
 .debug_str     0x0000000000007f3b      0x133 /tmp/cchujncb.debug.temp.o
                                       0x1323 (size before relaxing)
 .debug_str     0x000000000000806e       0xfc /usr/lib/gcc/arm-none-eabi/10.3.1/../../../arm-none-eabi/lib/thumb/v7-m/nofp/libg.a(lib_a-memcmp.o)
                                        0x19f (size before relaxing)
 .debug_str     0x000000000000816a       0xad /usr/lib/gcc/arm-none-eabi/10.3.1/../../../arm-none-eabi/lib/thumb/v7-m/nofp/libg.a(lib_a-memcpy.o)
 .debug_str     0x0000000000008217       0x41 /usr/lib/gcc/arm-none-eabi/10.3.1/../../../arm-none-eabi/lib/thumb/v7-m/nofp/libg.a(lib_a-memset.o)
                                        0x1b3 (size before relaxing)
 .debug_str     0x0000000000008258       0x34 /usr/lib/gcc/arm-none-eabi/10.3.1/../../../arm-none-eabi/lib/thumb/v7-m/nofp/libg.a(lib_a-strchr.o)
                                        0x1aa (size before relaxing)
 .debug_str     0x000000000000828c       0x43 /usr/lib/gcc/arm-none-eabi/10.3.1/../../../arm-none-eabi/lib/thumb/v7-m/nofp/libg.a(lib_a-strcmp.o)
                                         0xad (size before relaxing)
 .debug_str     0x00000000000082cf       0x3c /usr/lib/gcc/arm-none-eabi/10.3.1/../../../arm-none-eabi/lib/thumb/v7-m/nofp/libg.a(lib_a-strcpy.o)
                                        0x1a5 (size before relaxing)
 .debug_str     0x000000000000830b       0x41 /usr/lib/gcc/arm-none-eabi/10.3.1/../../../arm-none-eabi/lib/thumb/v7-m/nofp/libg.a(lib_a-strlen-stub.o)
                                        0x1b1 (size before relaxing)
 .debug_str     0x000000000000834c       0x35 /usr/lib/gcc/arm-none-eabi/10.3.1/../../../arm-none-eabi/lib/thumb/v7-m/nofp/libg.a(lib_a-strncmp.o)
                                        0x1a1 (size before relaxing)
 .debug_str     0x0000000000008381       0x35 /usr/lib/gcc/arm-none-eabi/10.3.1/../../../arm-none-eabi/lib/thumb/v7-m/nofp/libg.a(lib_a-strpbrk.o)
                                        0x19a (size before relaxing)
 .debug_str     0x00000000000083b6       0x34 /usr/lib/gcc/arm-none-eabi/10.3.1/../../../arm-none-eabi/lib/thumb/v7-m/nofp/libg.a(lib_a-strspn.o)
                                        0x19f (size before relaxing)

.debug_loc      0x0000000000000000    0x30db5
 .debug_loc     0x0000000000000000    0x1b392 /tmp/ch.elf.PrlmSi.ltrans0.ltrans.o
 .debug_loc     0x000000000001b392    0x15072 /tmp/ch.elf.PrlmSi.ltrans1.ltrans.o
 .debug_loc     0x0000000000030404      0x1db /usr/lib/gcc/arm-none-eabi/10.3.1/../../../arm-none-eabi/lib/thumb/v7-m/nofp/libg.a(lib_a-memcmp.o)
 .debug_loc     0x00000000000305df      0x22c /usr/lib/gcc/arm-none-eabi/10.3.1/../../../arm-none-eabi/lib/thumb/v7-m/nofp/libg.a(lib_a-memset.o)
 .debug_loc     0x000000000003080b      0x1e9 /usr/lib/gcc/arm-none-eabi/10.3.1/../../../arm-none-eabi/lib/thumb/v7-m/nofp/libg.a(lib_a-strchr.o)
 .debug_loc     0x00000000000309f4       0x25 /usr/lib/gcc/arm-none-eabi/10.3.1/../../../arm-none-eabi/lib/thumb/v7-m/nofp/libg.a(lib_a-strcpy.o)
 .debug_loc     0x0000000000030a19       0x25 /usr/lib/gcc/arm-none-eabi/10.3.1/../../../arm-none-eabi/lib/thumb/v7-m/nofp/libg.a(lib_a-strlen-stub.o)
 .debug_loc     0x0000000000030a3e      0x1a7 /usr/lib/gcc/arm-none-eabi/10.3.1/../../../arm-none-eabi/lib/thumb/v7-m/nofp/libg.a(lib_a-strncmp.o)
 .debug_loc     0x0000000000030be5       0xe1 /usr/lib/gcc/arm-none-eabi/10.3.1/../../../arm-none-eabi/lib/thumb/v7-m/nofp/libg.a(lib_a-strpbrk.o)
 .debug_loc     0x0000000000030cc6       0xef /usr/lib/gcc/arm-none-eabi/10.3.1/../../../arm-none-eabi/lib/thumb/v7-m/nofp/libg.a(lib_a-strspn.o)

.debug_ranges   0x0000000000000000    0x1c948
 .debug_ranges  0x0000000000000000     0xf588 /tmp/ch.elf.PrlmSi.ltrans0.ltrans.o
 .debug_ranges  0x000000000000f588     0xd3a0 /tmp/ch.elf.PrlmSi.ltrans1.ltrans.o
 .debug_ranges  0x000000000001c928       0x10 /usr/lib/gcc/arm-none-eabi/10.3.1/../../../arm-none-eabi/lib/thumb/v7-m/nofp/libg.a(lib_a-strcpy.o)
 .debug_ranges  0x000000000001c938       0x10 /usr/lib/gcc/arm-none-eabi/10.3.1/../../../arm-none-eabi/lib/thumb/v7-m/nofp/libg.a(lib_a-strlen-stub.o)

.debug_frame    0x0000000000000000     0x2a54
 .debug_frame   0x0000000000000000     0x19bc /tmp/ch.elf.PrlmSi.ltrans0.ltrans.o
 .debug_frame   0x00000000000019bc      0xf10 /tmp/ch.elf.PrlmSi.ltrans1.ltrans.o
 .debug_frame   0x00000000000028cc       0x28 /usr/lib/gcc/arm-none-eabi/10.3.1/../../../arm-none-eabi/lib/thumb/v7-m/nofp/libg.a(lib_a-memcmp.o)
 .debug_frame   0x00000000000028f4       0x2c /usr/lib/gcc/arm-none-eabi/10.3.1/../../../arm-none-eabi/lib/thumb/v7-m/nofp/libg.a(lib_a-memset.o)
 .debug_frame   0x0000000000002920       0x34 /usr/lib/gcc/arm-none-eabi/10.3.1/../../../arm-none-eabi/lib/thumb/v7-m/nofp/libg.a(lib_a-strchr.o)
 .debug_frame   0x0000000000002954       0x34 /usr/lib/gcc/arm-none-eabi/10.3.1/../../../arm-none-eabi/lib/thumb/v7-m/nofp/libg.a(lib_a-strcmp.o)
 .debug_frame   0x0000000000002988       0x20 /usr/lib/gcc/arm-none-eabi/10.3.1/../../../arm-none-eabi/lib/thumb/v7-m/nofp/libg.a(lib_a-strcpy.o)
 .debug_frame   0x00000000000029a8       0x20 /usr/lib/gcc/arm-none-eabi/10.3.1/../../../arm-none-eabi/lib/thumb/v7-m/nofp/libg.a(lib_a-strlen-stub.o)
 .debug_frame   0x00000000000029c8       0x38 /usr/lib/gcc/arm-none-eabi/10.3.1/../../../arm-none-eabi/lib/thumb/v7-m/nofp/libg.a(lib_a-strncmp.o)
 .debug_frame   0x0000000000002a00       0x2c /usr/lib/gcc/arm-none-eabi/10.3.1/../../../arm-none-eabi/lib/thumb/v7-m/nofp/libg.a(lib_a-strpbrk.o)
 .debug_frame   0x0000000000002a2c       0x28 /usr/lib/gcc/arm-none-eabi/10.3.1/../../../arm-none-eabi/lib/thumb/v7-m/nofp/libg.a(lib_a-strspn.o)

Cross Reference Table

Symbol                                            File
BusFault_Handler                                  ./build/obj/vectors.o
DebugMon_Handler                                  ./build/obj/vectors.o
HardFault_Handler                                 ./build/obj/vectors.o
MemManage_Handler                                 ./build/obj/vectors.o
NMI_Handler                                       ./build/obj/vectors.o
PendSV_Handler                                    ./build/obj/vectors.o
Reset_Handler                                     ./build/obj/vectors.o
SDCD1                                             /tmp/ch.elf.PrlmSi.ltrans0.ltrans.o
                                                  ./build/obj/hal_sdc_lld.o (symbol from plugin)
                                                  /tmp/ch.elf.PrlmSi.ltrans1.ltrans.o
                                                  ./build/obj/main.o (symbol from plugin)
                                                  ./build/obj/fatfs_diskio.o (symbol from plugin)
SDU1                                              /tmp/ch.elf.PrlmSi.ltrans0.ltrans.o
                                                  ./build/obj/usbcfg.o (symbol from plugin)
                                                  /tmp/ch.elf.PrlmSi.ltrans1.ltrans.o
                                                  ./build/obj/main.o (symbol from plugin)
SVC_Handler                                       /tmp/ch.elf.PrlmSi.ltrans0.ltrans.o
                                                  ./build/obj/chcore.o (symbol from plugin)
                                                  ./build/obj/vectors.o
SecureFault_Handler                               ./build/obj/vectors.o
SysTick_Handler                                   ./build/obj/vectors.o
SystemCoreClock                                   ./build/obj/hal_lld.o (symbol from plugin)
USBD1                                             /tmp/ch.elf.PrlmSi.ltrans0.ltrans.o
                                                  ./build/obj/hal_usb_lld.o (symbol from plugin)
                                                  /tmp/ch.elf.PrlmSi.ltrans1.ltrans.o
                                                  ./build/obj/usbcfg.o (symbol from plugin)
UsageFault_Handler                                ./build/obj/vectors.o
Vector100                                         ./build/obj/vectors.o
Vector104                                         /tmp/ch.elf.PrlmSi.ltrans0.ltrans.o
                                                  ./build/obj/hal_sdc_lld.o (symbol from plugin)
                                                  ./build/obj/vectors.o
Vector108                                         ./build/obj/vectors.o
Vector10C                                         ./build/obj/vectors.o
Vector110                                         ./build/obj/vectors.o
Vector114                                         ./build/obj/vectors.o
Vector118                                         ./build/obj/vectors.o
Vector11C                                         ./build/obj/vectors.o
Vector120                                         /tmp/ch.elf.PrlmSi.ltrans0.ltrans.o
                                                  ./build/obj/stm32_dma.o (symbol from plugin)
                                                  ./build/obj/vectors.o
Vector124                                         /tmp/ch.elf.PrlmSi.ltrans0.ltrans.o
                                                  ./build/obj/stm32_dma.o (symbol from plugin)
                                                  ./build/obj/vectors.o
Vector128                                         /tmp/ch.elf.PrlmSi.ltrans0.ltrans.o
                                                  ./build/obj/stm32_dma.o (symbol from plugin)
                                                  ./build/obj/vectors.o
Vector12C                                         /tmp/ch.elf.PrlmSi.ltrans0.ltrans.o
                                                  ./build/obj/stm32_dma.o (symbol from plugin)
                                                  ./build/obj/vectors.o
Vector130                                         /tmp/ch.elf.PrlmSi.ltrans0.ltrans.o
                                                  ./build/obj/stm32_dma.o (symbol from plugin)
                                                  ./build/obj/vectors.o
Vector134                                         ./build/obj/vectors.o
Vector138                                         ./build/obj/vectors.o
Vector13C                                         ./build/obj/vectors.o
Vector140                                         ./build/obj/vectors.o
Vector144                                         ./build/obj/vectors.o
Vector148                                         ./build/obj/vectors.o
Vector14C                                         ./build/obj/vectors.o
Vector150                                         ./build/obj/vectors.o
Vector154                                         ./build/obj/vectors.o
Vector158                                         ./build/obj/vectors.o
Vector15C                                         ./build/obj/vectors.o
Vector20                                          ./build/obj/vectors.o
Vector24                                          ./build/obj/vectors.o
Vector28                                          ./build/obj/vectors.o
Vector34                                          ./build/obj/vectors.o
Vector40                                          ./build/obj/vectors.o
Vector44                                          ./build/obj/vectors.o
Vector48                                          ./build/obj/vectors.o
Vector4C                                          ./build/obj/vectors.o
Vector50                                          ./build/obj/vectors.o
Vector54                                          ./build/obj/vectors.o
Vector58                                          ./build/obj/vectors.o
Vector5C                                          ./build/obj/vectors.o
Vector60                                          ./build/obj/vectors.o
Vector64                                          ./build/obj/vectors.o
Vector68                                          ./build/obj/vectors.o
Vector6C                                          /tmp/ch.elf.PrlmSi.ltrans0.ltrans.o
                                                  ./build/obj/stm32_dma.o (symbol from plugin)
                                                  ./build/obj/vectors.o
Vector70                                          /tmp/ch.elf.PrlmSi.ltrans0.ltrans.o
                                                  ./build/obj/stm32_dma.o (symbol from plugin)
                                                  ./build/obj/vectors.o
Vector74                                          /tmp/ch.elf.PrlmSi.ltrans0.ltrans.o
                                                  ./build/obj/stm32_dma.o (symbol from plugin)
                                                  ./build/obj/vectors.o
Vector78                                          /tmp/ch.elf.PrlmSi.ltrans0.ltrans.o
                                                  ./build/obj/stm32_dma.o (symbol from plugin)
                                                  ./build/obj/vectors.o
Vector7C                                          /tmp/ch.elf.PrlmSi.ltrans0.ltrans.o
                                                  ./build/obj/stm32_dma.o (symbol from plugin)
                                                  ./build/obj/vectors.o
Vector80                                          /tmp/ch.elf.PrlmSi.ltrans0.ltrans.o
                                                  ./build/obj/stm32_dma.o (symbol from plugin)
                                                  ./build/obj/vectors.o
Vector84                                          /tmp/ch.elf.PrlmSi.ltrans0.ltrans.o
                                                  ./build/obj/stm32_dma.o (symbol from plugin)
                                                  ./build/obj/vectors.o
Vector88                                          ./build/obj/vectors.o
Vector8C                                          ./build/obj/vectors.o
Vector90                                          /tmp/ch.elf.PrlmSi.ltrans0.ltrans.o
                                                  ./build/obj/hal_usb_lld.o (symbol from plugin)
                                                  ./build/obj/vectors.o
Vector94                                          ./build/obj/vectors.o
Vector98                                          ./build/obj/vectors.o
Vector9C                                          ./build/obj/vectors.o
VectorA0                                          ./build/obj/vectors.o
VectorA4                                          ./build/obj/vectors.o
VectorA8                                          ./build/obj/vectors.o
VectorAC                                          ./build/obj/vectors.o
VectorB0                                          /tmp/ch.elf.PrlmSi.ltrans0.ltrans.o
                                                  ./build/obj/hal_st_lld.o (symbol from plugin)
                                                  ./build/obj/vectors.o
VectorB4                                          ./build/obj/vectors.o
VectorB8                                          ./build/obj/vectors.o
VectorBC                                          ./build/obj/vectors.o
VectorC0                                          ./build/obj/vectors.o
VectorC4                                          ./build/obj/vectors.o
VectorC8                                          ./build/obj/vectors.o
VectorCC                                          ./build/obj/vectors.o
VectorD0                                          ./build/obj/vectors.o
VectorD4                                          ./build/obj/vectors.o
VectorD8                                          ./build/obj/vectors.o
VectorDC                                          ./build/obj/vectors.o
VectorE0                                          ./build/obj/vectors.o
VectorE4                                          ./build/obj/vectors.o
VectorE8                                          ./build/obj/vectors.o
VectorEC                                          ./build/obj/vectors.o
VectorF0                                          ./build/obj/vectors.o
VectorF4                                          ./build/obj/vectors.o
VectorF8                                          ./build/obj/vectors.o
VectorFC                                          ./build/obj/vectors.o
__bss_base__                                      /tmp/ch.elf.PrlmSi.ltrans1.ltrans.o
                                                  ./build/obj/ch_test.o (symbol from plugin)
                                                  ./build/obj/crt0_v7m.o
__bss_end__                                       /tmp/ch.elf.PrlmSi.ltrans1.ltrans.o
                                                  ./build/obj/ch_test.o (symbol from plugin)
                                                  ./build/obj/crt0_v7m.o
__ch_delegate_fn0                                 /tmp/ch.elf.PrlmSi.ltrans0.ltrans.o
                                                  ./build/obj/chdelegates.o (symbol from plugin)
                                                  /tmp/ch.elf.PrlmSi.ltrans1.ltrans.o
                                                  ./build/obj/oslib_test_sequence_005.o (symbol from plugin)
__ch_delegate_fn1                                 /tmp/ch.elf.PrlmSi.ltrans0.ltrans.o
                                                  ./build/obj/chdelegates.o (symbol from plugin)
                                                  /tmp/ch.elf.PrlmSi.ltrans1.ltrans.o
                                                  ./build/obj/oslib_test_sequence_005.o (symbol from plugin)
__ch_delegate_fn2                                 /tmp/ch.elf.PrlmSi.ltrans0.ltrans.o
                                                  ./build/obj/chdelegates.o (symbol from plugin)
                                                  /tmp/ch.elf.PrlmSi.ltrans1.ltrans.o
                                                  ./build/obj/oslib_test_sequence_005.o (symbol from plugin)
__ch_delegate_fn3                                 /tmp/ch.elf.PrlmSi.ltrans0.ltrans.o
                                                  ./build/obj/chdelegates.o (symbol from plugin)
                                                  /tmp/ch.elf.PrlmSi.ltrans1.ltrans.o
                                                  ./build/obj/oslib_test_sequence_005.o (symbol from plugin)
__ch_delegate_fn4                                 /tmp/ch.elf.PrlmSi.ltrans0.ltrans.o
                                                  ./build/obj/chdelegates.o (symbol from plugin)
                                                  /tmp/ch.elf.PrlmSi.ltrans1.ltrans.o
                                                  ./build/obj/oslib_test_sequence_005.o (symbol from plugin)
__ch_mem_executable_areas                         ./build/obj/chmemchecks.o (symbol from plugin)
__ch_mem_readable_areas                           ./build/obj/chmemchecks.o (symbol from plugin)
__ch_mem_writable_areas                           ./build/obj/chmemchecks.o (symbol from plugin)
__core_init                                       ./build/obj/chmemcore.o (symbol from plugin)
                                                  ./build/obj/chsys.o (symbol from plugin)
__cpu_init                                        /tmp/ch.elf.PrlmSi.ltrans0.ltrans.o
                                                  ./build/obj/crt1.o (symbol from plugin)
                                                  ./build/obj/crt0_v7m.o
__data_base__                                     /tmp/ch.elf.PrlmSi.ltrans1.ltrans.o
                                                  ./build/obj/ch_test.o (symbol from plugin)
                                                  ./build/obj/crt0_v7m.o
__data_end__                                      /tmp/ch.elf.PrlmSi.ltrans1.ltrans.o
                                                  ./build/obj/ch_test.o (symbol from plugin)
                                                  ./build/obj/crt0_v7m.o
__default_exit                                    /tmp/ch.elf.PrlmSi.ltrans0.ltrans.o
                                                  ./build/obj/crt1.o (symbol from plugin)
                                                  ./build/obj/crt0_v7m.o
__early_init                                      /tmp/ch.elf.PrlmSi.ltrans0.ltrans.o
                                                  ./build/obj/board.o (symbol from plugin)
                                                  ./build/obj/crt1.o (symbol from plugin)
                                                  ./build/obj/crt0_v7m.o
__factory_init                                    ./build/obj/chfactory.o (symbol from plugin)
                                                  ./build/obj/chsys.o (symbol from plugin)
__fini_array_base__                               ./build/obj/crt0_v7m.o
__fini_array_end__                                ./build/obj/crt0_v7m.o
__heap_base__                                     /tmp/ch.elf.PrlmSi.ltrans1.ltrans.o
                                                  ./build/obj/chmemcore.o (symbol from plugin)
__heap_end__                                      /tmp/ch.elf.PrlmSi.ltrans1.ltrans.o
                                                  ./build/obj/chmemcore.o (symbol from plugin)
__heap_init                                       ./build/obj/chmemheaps.o (symbol from plugin)
                                                  ./build/obj/chsys.o (symbol from plugin)
__idle_thread.lto_priv.0                          /tmp/ch.elf.PrlmSi.ltrans0.ltrans.o
                                                  /tmp/ch.elf.PrlmSi.ltrans1.ltrans.o
__init_array_base__                               ./build/obj/crt0_v7m.o
__init_array_end__                                ./build/obj/crt0_v7m.o
__init_ram_areas                                  /tmp/ch.elf.PrlmSi.ltrans0.ltrans.o
                                                  ./build/obj/crt1.o (symbol from plugin)
                                                  ./build/obj/crt0_v7m.o
__late_init                                       /tmp/ch.elf.PrlmSi.ltrans0.ltrans.o
                                                  ./build/obj/crt1.o (symbol from plugin)
                                                  ./build/obj/crt0_v7m.o
__main_stack_base__                               ./build/obj/crt0_v7m.o
__main_stack_end__                                ./build/obj/vectors.o
                                                  ./build/obj/crt0_v7m.o
__main_thread_stack_base__                        /tmp/ch.elf.PrlmSi.ltrans1.ltrans.o
                                                  ./build/obj/chsys.o (symbol from plugin)
__main_thread_stack_end__                         /tmp/ch.elf.PrlmSi.ltrans1.ltrans.o
                                                  ./build/obj/chsys.o (symbol from plugin)
__port_exit_from_isr                              ./build/obj/chcoreasm.o
                                                  /tmp/ch.elf.PrlmSi.ltrans0.ltrans.o
                                                  ./build/obj/chcore.o (symbol from plugin)
__port_irq_epilogue                               ./build/obj/chcore.o (symbol from plugin)
                                                  ./build/obj/hal_usb_lld.o (symbol from plugin)
                                                  ./build/obj/hal_st_lld.o (symbol from plugin)
                                                  ./build/obj/hal_sdc_lld.o (symbol from plugin)
                                                  ./build/obj/stm32_dma.o (symbol from plugin)
__port_switch                                     ./build/obj/chcoreasm.o
                                                  /tmp/ch.elf.PrlmSi.ltrans1.ltrans.o
                                                  /tmp/ch.elf.PrlmSi.ltrans0.ltrans.o
                                                  ./build/obj/chschd.o (symbol from plugin)
__port_switch_from_isr                            ./build/obj/chcoreasm.o
                                                  /tmp/ch.elf.PrlmSi.ltrans0.ltrans.o
                                                  ./build/obj/chcore.o (symbol from plugin)
__port_thread_start                               ./build/obj/chcoreasm.o
                                                  /tmp/ch.elf.PrlmSi.ltrans0.ltrans.o
                                                  ./build/obj/chthreads.o (symbol from plugin)
__process_stack_base__                            ./build/obj/crt0_v7m.o
__process_stack_end__                             ./build/obj/crt0_v7m.o
__ram0_clear__                                    /tmp/ch.elf.PrlmSi.ltrans0.ltrans.o
                                                  ./build/obj/crt1.o (symbol from plugin)
__ram0_init__                                     /tmp/ch.elf.PrlmSi.ltrans0.ltrans.o
                                                  ./build/obj/crt1.o (symbol from plugin)
__ram0_init_text__                                /tmp/ch.elf.PrlmSi.ltrans0.ltrans.o
                                                  ./build/obj/crt1.o (symbol from plugin)
__ram0_noinit__                                   /tmp/ch.elf.PrlmSi.ltrans0.ltrans.o
                                                  ./build/obj/crt1.o (symbol from plugin)
__ram1_clear__                                    /tmp/ch.elf.PrlmSi.ltrans0.ltrans.o
                                                  ./build/obj/crt1.o (symbol from plugin)
__ram1_init__                                     /tmp/ch.elf.PrlmSi.ltrans0.ltrans.o
                                                  ./build/obj/crt1.o (symbol from plugin)
__ram1_init_text__                                /tmp/ch.elf.PrlmSi.ltrans0.ltrans.o
                                                  ./build/obj/crt1.o (symbol from plugin)
__ram1_noinit__                                   /tmp/ch.elf.PrlmSi.ltrans0.ltrans.o
                                                  ./build/obj/crt1.o (symbol from plugin)
__ram2_clear__                                    /tmp/ch.elf.PrlmSi.ltrans0.ltrans.o
                                                  ./build/obj/crt1.o (symbol from plugin)
__ram2_init__                                     /tmp/ch.elf.PrlmSi.ltrans0.ltrans.o
                                                  ./build/obj/crt1.o (symbol from plugin)
__ram2_init_text__                                /tmp/ch.elf.PrlmSi.ltrans0.ltrans.o
                                                  ./build/obj/crt1.o (symbol from plugin)
__ram2_noinit__                                   /tmp/ch.elf.PrlmSi.ltrans0.ltrans.o
                                                  ./build/obj/crt1.o (symbol from plugin)
__ram3_clear__                                    /tmp/ch.elf.PrlmSi.ltrans0.ltrans.o
                                                  ./build/obj/crt1.o (symbol from plugin)
__ram3_init__                                     /tmp/ch.elf.PrlmSi.ltrans0.ltrans.o
                                                  ./build/obj/crt1.o (symbol from plugin)
__ram3_init_text__                                /tmp/ch.elf.PrlmSi.ltrans0.ltrans.o
                                                  ./build/obj/crt1.o (symbol from plugin)
__ram3_noinit__                                   /tmp/ch.elf.PrlmSi.ltrans0.ltrans.o
                                                  ./build/obj/crt1.o (symbol from plugin)
__ram4_clear__                                    /tmp/ch.elf.PrlmSi.ltrans0.ltrans.o
                                                  ./build/obj/crt1.o (symbol from plugin)
__ram4_init__                                     /tmp/ch.elf.PrlmSi.ltrans0.ltrans.o
                                                  ./build/obj/crt1.o (symbol from plugin)
__ram4_init_text__                                /tmp/ch.elf.PrlmSi.ltrans0.ltrans.o
                                                  ./build/obj/crt1.o (symbol from plugin)
__ram4_noinit__                                   /tmp/ch.elf.PrlmSi.ltrans0.ltrans.o
                                                  ./build/obj/crt1.o (symbol from plugin)
__ram5_clear__                                    /tmp/ch.elf.PrlmSi.ltrans0.ltrans.o
                                                  ./build/obj/crt1.o (symbol from plugin)
__ram5_init__                                     /tmp/ch.elf.PrlmSi.ltrans0.ltrans.o
                                                  ./build/obj/crt1.o (symbol from plugin)
__ram5_init_text__                                /tmp/ch.elf.PrlmSi.ltrans0.ltrans.o
                                                  ./build/obj/crt1.o (symbol from plugin)
__ram5_noinit__                                   /tmp/ch.elf.PrlmSi.ltrans0.ltrans.o
                                                  ./build/obj/crt1.o (symbol from plugin)
__ram6_clear__                                    /tmp/ch.elf.PrlmSi.ltrans0.ltrans.o
                                                  ./build/obj/crt1.o (symbol from plugin)
__ram6_init__                                     /tmp/ch.elf.PrlmSi.ltrans0.ltrans.o
                                                  ./build/obj/crt1.o (symbol from plugin)
__ram6_init_text__                                /tmp/ch.elf.PrlmSi.ltrans0.ltrans.o
                                                  ./build/obj/crt1.o (symbol from plugin)
__ram6_noinit__                                   /tmp/ch.elf.PrlmSi.ltrans0.ltrans.o
                                                  ./build/obj/crt1.o (symbol from plugin)
__ram7_clear__                                    /tmp/ch.elf.PrlmSi.ltrans0.ltrans.o
                                                  ./build/obj/crt1.o (symbol from plugin)
__ram7_init__                                     /tmp/ch.elf.PrlmSi.ltrans0.ltrans.o
                                                  ./build/obj/crt1.o (symbol from plugin)
__ram7_init_text__                                /tmp/ch.elf.PrlmSi.ltrans0.ltrans.o
                                                  ./build/obj/crt1.o (symbol from plugin)
__ram7_noinit__                                   /tmp/ch.elf.PrlmSi.ltrans0.ltrans.o
                                                  ./build/obj/crt1.o (symbol from plugin)
__rodata_base__                                   /tmp/ch.elf.PrlmSi.ltrans1.ltrans.o
                                                  ./build/obj/ch_test.o (symbol from plugin)
__rodata_end__                                    /tmp/ch.elf.PrlmSi.ltrans1.ltrans.o
                                                  ./build/obj/ch_test.o (symbol from plugin)
__sch_reschedule_ahead.lto_priv.0                 /tmp/ch.elf.PrlmSi.ltrans0.ltrans.o
                                                  /tmp/ch.elf.PrlmSi.ltrans1.ltrans.o
__sch_wakeup.lto_priv.0                           /tmp/ch.elf.PrlmSi.ltrans0.ltrans.o
                                                  /tmp/ch.elf.PrlmSi.ltrans1.ltrans.o
__test_assert                                     /tmp/ch.elf.PrlmSi.ltrans0.ltrans.o
                                                  ./build/obj/ch_test.o (symbol from plugin)
                                                  /tmp/ch.elf.PrlmSi.ltrans1.ltrans.o
                                                  ./build/obj/oslib_test_sequence_009.o (symbol from plugin)
                                                  ./build/obj/oslib_test_sequence_008.o (symbol from plugin)
                                                  ./build/obj/oslib_test_sequence_007.o (symbol from plugin)
                                                  ./build/obj/oslib_test_sequence_006.o (symbol from plugin)
                                                  ./build/obj/oslib_test_sequence_005.o (symbol from plugin)
                                                  ./build/obj/oslib_test_sequence_003.o (symbol from plugin)
                                                  ./build/obj/oslib_test_sequence_002.o (symbol from plugin)
                                                  ./build/obj/rt_test_sequence_011.o (symbol from plugin)
                                                  ./build/obj/rt_test_sequence_010.o (symbol from plugin)
                                                  ./build/obj/rt_test_sequence_008.o (symbol from plugin)
                                                  ./build/obj/rt_test_sequence_007.o (symbol from plugin)
                                                  ./build/obj/rt_test_sequence_006.o (symbol from plugin)
                                                  ./build/obj/rt_test_sequence_005.o (symbol from plugin)
                                                  ./build/obj/rt_test_sequence_004.o (symbol from plugin)
                                                  ./build/obj/rt_test_sequence_003.o (symbol from plugin)
                                                  ./build/obj/rt_test_sequence_002.o (symbol from plugin)
__test_assert_sequence                            /tmp/ch.elf.PrlmSi.ltrans0.ltrans.o
                                                  ./build/obj/ch_test.o (symbol from plugin)
                                                  /tmp/ch.elf.PrlmSi.ltrans1.ltrans.o
                                                  ./build/obj/oslib_test_sequence_006.o (symbol from plugin)
                                                  ./build/obj/oslib_test_sequence_005.o (symbol from plugin)
                                                  ./build/obj/oslib_test_sequence_004.o (symbol from plugin)
                                                  ./build/obj/oslib_test_sequence_002.o (symbol from plugin)
                                                  ./build/obj/rt_test_sequence_011.o (symbol from plugin)
                                                  ./build/obj/rt_test_sequence_010.o (symbol from plugin)
                                                  ./build/obj/rt_test_sequence_009.o (symbol from plugin)
                                                  ./build/obj/rt_test_sequence_008.o (symbol from plugin)
                                                  ./build/obj/rt_test_sequence_007.o (symbol from plugin)
                                                  ./build/obj/rt_test_sequence_005.o (symbol from plugin)
__test_assert_time_window                         ./build/obj/ch_test.o (symbol from plugin)
                                                  ./build/obj/rt_test_sequence_010.o (symbol from plugin)
                                                  ./build/obj/rt_test_sequence_007.o (symbol from plugin)
                                                  ./build/obj/rt_test_sequence_006.o (symbol from plugin)
                                                  ./build/obj/rt_test_sequence_005.o (symbol from plugin)
__test_fail                                       ./build/obj/ch_test.o (symbol from plugin)
__text_base__                                     /tmp/ch.elf.PrlmSi.ltrans1.ltrans.o
                                                  ./build/obj/ch_test.o (symbol from plugin)
__text_end__                                      /tmp/ch.elf.PrlmSi.ltrans1.ltrans.o
                                                  ./build/obj/ch_test.o (symbol from plugin)
__textdata_base__                                 ./build/obj/crt0_v7m.o
__thd_object_init                                 ./build/obj/chthreads.o (symbol from plugin)
                                                  ./build/obj/chinstances.o (symbol from plugin)
_crt0_entry                                       ./build/obj/crt0_v7m.o
                                                  ./build/obj/vectors.o
_ctl.lto_priv.0                                   /tmp/ch.elf.PrlmSi.ltrans0.ltrans.o
                                                  /tmp/ch.elf.PrlmSi.ltrans1.ltrans.o
_ctype_                                           /usr/lib/gcc/arm-none-eabi/10.3.1/../../../arm-none-eabi/lib/thumb/v7-m/nofp/libg.a(lib_a-ctype_.o)
                                                  ./build/obj/chscanf.o (symbol from plugin)
_get.lto_priv.0                                   /tmp/ch.elf.PrlmSi.ltrans0.ltrans.o
                                                  /tmp/ch.elf.PrlmSi.ltrans1.ltrans.o
_gett.lto_priv.0                                  /tmp/ch.elf.PrlmSi.ltrans0.ltrans.o
                                                  /tmp/ch.elf.PrlmSi.ltrans1.ltrans.o
_mmcsd_get_capacity                               ./build/obj/hal_mmcsd.o (symbol from plugin)
                                                  ./build/obj/hal_sdc.o (symbol from plugin)
_mmcsd_get_capacity_ext                           ./build/obj/hal_mmcsd.o (symbol from plugin)
                                                  ./build/obj/hal_sdc.o (symbol from plugin)
_mmcsd_get_slice                                  ./build/obj/hal_mmcsd.o (symbol from plugin)
                                                  ./build/obj/hal_sdc.o (symbol from plugin)
_mmcsd_unpack_csd_mmc                             ./build/obj/hal_mmcsd.o (symbol from plugin)
_mmcsd_unpack_csd_v10                             ./build/obj/hal_mmcsd.o (symbol from plugin)
_mmcsd_unpack_csd_v20                             ./build/obj/hal_mmcsd.o (symbol from plugin)
_mmcsd_unpack_mmc_cid                             ./build/obj/hal_mmcsd.o (symbol from plugin)
_mmcsd_unpack_sdc_cid                             ./build/obj/hal_mmcsd.o (symbol from plugin)
_pal_lld_init                                     ./build/obj/hal_pal_lld.o (symbol from plugin)
                                                  ./build/obj/hal.o (symbol from plugin)
_pal_lld_setgroupmode                             ./build/obj/hal_pal_lld.o (symbol from plugin)
                                                  ./build/obj/hal_pal.o (symbol from plugin)
_put.lto_priv.0                                   /tmp/ch.elf.PrlmSi.ltrans0.ltrans.o
                                                  /tmp/ch.elf.PrlmSi.ltrans1.ltrans.o
_putt.lto_priv.0                                  /tmp/ch.elf.PrlmSi.ltrans0.ltrans.o
                                                  /tmp/ch.elf.PrlmSi.ltrans1.ltrans.o
_read.lto_priv.0                                  /tmp/ch.elf.PrlmSi.ltrans0.ltrans.o
                                                  /tmp/ch.elf.PrlmSi.ltrans1.ltrans.o
_readt.lto_priv.0                                 /tmp/ch.elf.PrlmSi.ltrans0.ltrans.o
                                                  /tmp/ch.elf.PrlmSi.ltrans1.ltrans.o
_sdc_wait_for_transfer_state                      /tmp/ch.elf.PrlmSi.ltrans0.ltrans.o
                                                  ./build/obj/hal_sdc.o (symbol from plugin)
                                                  /tmp/ch.elf.PrlmSi.ltrans1.ltrans.o
                                                  ./build/obj/hal_sdc_lld.o (symbol from plugin)
_stm32_dma_streams                                /tmp/ch.elf.PrlmSi.ltrans0.ltrans.o
                                                  ./build/obj/stm32_dma.o (symbol from plugin)
                                                  /tmp/ch.elf.PrlmSi.ltrans1.ltrans.o
_unhandled_exception                              ./build/obj/vectors.o
_usb_ep0in                                        /tmp/ch.elf.PrlmSi.ltrans0.ltrans.o
                                                  ./build/obj/hal_usb.o (symbol from plugin)
                                                  ./build/obj/hal_usb_lld.o (symbol from plugin)
_usb_ep0out                                       /tmp/ch.elf.PrlmSi.ltrans0.ltrans.o
                                                  ./build/obj/hal_usb.o (symbol from plugin)
                                                  ./build/obj/hal_usb_lld.o (symbol from plugin)
_usb_ep0setup                                     /tmp/ch.elf.PrlmSi.ltrans0.ltrans.o
                                                  ./build/obj/hal_usb.o (symbol from plugin)
                                                  ./build/obj/hal_usb_lld.o (symbol from plugin)
_usb_reset                                        ./build/obj/hal_usb.o (symbol from plugin)
                                                  ./build/obj/hal_usb_lld.o (symbol from plugin)
_usb_suspend                                      ./build/obj/hal_usb.o (symbol from plugin)
                                                  ./build/obj/hal_usb_lld.o (symbol from plugin)
_usb_wakeup                                       ./build/obj/hal_usb.o (symbol from plugin)
                                                  ./build/obj/hal_usb_lld.o (symbol from plugin)
_vectors                                          ./build/obj/vectors.o
                                                  ./build/obj/crt0_v7m.o
_write.lto_priv.0                                 /tmp/ch.elf.PrlmSi.ltrans0.ltrans.o
                                                  /tmp/ch.elf.PrlmSi.ltrans1.ltrans.o
_writet.lto_priv.0                                /tmp/ch.elf.PrlmSi.ltrans0.ltrans.o
                                                  /tmp/ch.elf.PrlmSi.ltrans1.ltrans.o
bmk_thread3.lto_priv.0                            /tmp/ch.elf.PrlmSi.ltrans0.ltrans.o
                                                  /tmp/ch.elf.PrlmSi.ltrans1.ltrans.o
bmk_thread4.lto_priv.0                            /tmp/ch.elf.PrlmSi.ltrans0.ltrans.o
                                                  /tmp/ch.elf.PrlmSi.ltrans1.ltrans.o
bmk_thread7.lto_priv.0                            /tmp/ch.elf.PrlmSi.ltrans0.ltrans.o
                                                  /tmp/ch.elf.PrlmSi.ltrans1.ltrans.o
bmk_thread8.lto_priv.0                            /tmp/ch.elf.PrlmSi.ltrans0.ltrans.o
                                                  /tmp/ch.elf.PrlmSi.ltrans1.ltrans.o
board.c.9befe7cd                                  /tmp/ccSK4oVX.debug.temp.o
                                                  /tmp/ch.elf.PrlmSi.ltrans1.ltrans.o
                                                  /tmp/ch.elf.PrlmSi.ltrans0.ltrans.o
boardInit                                         ./build/obj/board.o (symbol from plugin)
                                                  ./build/obj/hal.o (symbol from plugin)
bsIncomingDataI                                   ./build/obj/hal_buffered_serial.o (symbol from plugin)
bsRequestDataI                                    ./build/obj/hal_buffered_serial.o (symbol from plugin)
bsaObjectInit                                     ./build/obj/bufstreams.o (symbol from plugin)
bufstreams.c.179bf4ee                             /tmp/ccoLmP2B.debug.temp.o
ch0                                               /tmp/ch.elf.PrlmSi.ltrans0.ltrans.o
                                                  ./build/obj/chsys.o (symbol from plugin)
                                                  /tmp/ch.elf.PrlmSi.ltrans1.ltrans.o
                                                  ./build/obj/main.o (symbol from plugin)
                                                  ./build/obj/oslib_test_sequence_005.o (symbol from plugin)
                                                  ./build/obj/oslib_test_sequence_004.o (symbol from plugin)
                                                  ./build/obj/rt_test_sequence_012.o (symbol from plugin)
                                                  ./build/obj/rt_test_sequence_011.o (symbol from plugin)
                                                  ./build/obj/rt_test_sequence_010.o (symbol from plugin)
                                                  ./build/obj/rt_test_sequence_009.o (symbol from plugin)
                                                  ./build/obj/rt_test_sequence_008.o (symbol from plugin)
                                                  ./build/obj/rt_test_sequence_007.o (symbol from plugin)
                                                  ./build/obj/rt_test_sequence_006.o (symbol from plugin)
                                                  ./build/obj/rt_test_sequence_005.o (symbol from plugin)
                                                  ./build/obj/shell_cmd.o (symbol from plugin)
                                                  ./build/obj/shell.o (symbol from plugin)
                                                  ./build/obj/chmsg.o (symbol from plugin)
                                                  ./build/obj/chevents.o (symbol from plugin)
                                                  ./build/obj/chcond.o (symbol from plugin)
                                                  ./build/obj/chmtx.o (symbol from plugin)
                                                  ./build/obj/chsem.o (symbol from plugin)
                                                  ./build/obj/chregistry.o (symbol from plugin)
                                                  ./build/obj/chthreads.o (symbol from plugin)
                                                  ./build/obj/chschd.o (symbol from plugin)
                                                  ./build/obj/chvt.o (symbol from plugin)
                                                  ./build/obj/chrfcu.o (symbol from plugin)
chCacheGetObject                                  ./build/obj/chobjcaches.o (symbol from plugin)
                                                  ./build/obj/oslib_test_sequence_006.o (symbol from plugin)
chCacheObjectInit                                 ./build/obj/chobjcaches.o (symbol from plugin)
                                                  ./build/obj/oslib_test_sequence_006.o (symbol from plugin)
chCacheReadObject                                 ./build/obj/chobjcaches.o (symbol from plugin)
                                                  ./build/obj/oslib_test_sequence_006.o (symbol from plugin)
chCacheReleaseObjectI                             ./build/obj/chobjcaches.o (symbol from plugin)
                                                  ./build/obj/oslib_test_sequence_006.o (symbol from plugin)
chCacheWriteObject                                ./build/obj/chobjcaches.o (symbol from plugin)
chCondBroadcast                                   ./build/obj/chcond.o (symbol from plugin)
                                                  ./build/obj/rt_test_sequence_008.o (symbol from plugin)
chCondBroadcastI                                  ./build/obj/chcond.o (symbol from plugin)
chCondObjectDispose                               ./build/obj/chcond.o (symbol from plugin)
chCondObjectInit                                  ./build/obj/chcond.o (symbol from plugin)
                                                  ./build/obj/rt_test_sequence_008.o (symbol from plugin)
chCondSignal                                      ./build/obj/chcond.o (symbol from plugin)
                                                  ./build/obj/rt_test_sequence_008.o (symbol from plugin)
chCondSignalI                                     ./build/obj/chcond.o (symbol from plugin)
                                                  ./build/obj/rt_test_sequence_008.o (symbol from plugin)
chCondWait                                        ./build/obj/chcond.o (symbol from plugin)
                                                  ./build/obj/rt_test_sequence_008.o (symbol from plugin)
chCondWaitS                                       ./build/obj/chcond.o (symbol from plugin)
chCondWaitTimeout                                 ./build/obj/chcond.o (symbol from plugin)
                                                  ./build/obj/rt_test_sequence_008.o (symbol from plugin)
chCondWaitTimeoutS                                ./build/obj/chcond.o (symbol from plugin)
chCoreAllocAlignedI.lto_priv.0                    /tmp/ch.elf.PrlmSi.ltrans0.ltrans.o
                                                  /tmp/ch.elf.PrlmSi.ltrans1.ltrans.o
chCoreAllocFromBase                               ./build/obj/chmemcore.o (symbol from plugin)
chCoreAllocFromBaseI                              ./build/obj/chmemcore.o (symbol from plugin)
chCoreAllocFromTop                                /tmp/ch.elf.PrlmSi.ltrans0.ltrans.o
                                                  ./build/obj/chmemcore.o (symbol from plugin)
                                                  /tmp/ch.elf.PrlmSi.ltrans1.ltrans.o
                                                  ./build/obj/chmemheaps.o (symbol from plugin)
chCoreAllocFromTopI                               ./build/obj/chmemcore.o (symbol from plugin)
                                                  ./build/obj/chfactory.o (symbol from plugin)
chCoreGetStatusX                                  ./build/obj/chmemcore.o (symbol from plugin)
                                                  ./build/obj/shell_cmd.o (symbol from plugin)
                                                  ./build/obj/chmemheaps.o (symbol from plugin)
chDelegateCallVeneer                              /tmp/ch.elf.PrlmSi.ltrans0.ltrans.o
                                                  ./build/obj/chdelegates.o (symbol from plugin)
                                                  /tmp/ch.elf.PrlmSi.ltrans1.ltrans.o
                                                  ./build/obj/oslib_test_sequence_005.o (symbol from plugin)
chDelegateDispatch                                ./build/obj/chdelegates.o (symbol from plugin)
                                                  ./build/obj/oslib_test_sequence_005.o (symbol from plugin)
chDelegateDispatchTimeout                         ./build/obj/chdelegates.o (symbol from plugin)
chEvtAddEvents                                    ./build/obj/chevents.o (symbol from plugin)
                                                  ./build/obj/rt_test_sequence_010.o (symbol from plugin)
chEvtBroadcastFlags                               ./build/obj/chevents.o (symbol from plugin)
                                                  ./build/obj/rt_test_sequence_010.o (symbol from plugin)
chEvtBroadcastFlagsI                              /tmp/ch.elf.PrlmSi.ltrans0.ltrans.o
                                                  ./build/obj/chevents.o (symbol from plugin)
                                                  /tmp/ch.elf.PrlmSi.ltrans1.ltrans.o
                                                  ./build/obj/main.o (symbol from plugin)
                                                  ./build/obj/shell.o (symbol from plugin)
                                                  ./build/obj/hal_serial_usb.o (symbol from plugin)
                                                  ./build/obj/hal_buffered_serial.o (symbol from plugin)
chEvtDispatch                                     ./build/obj/chevents.o (symbol from plugin)
                                                  ./build/obj/main.o (symbol from plugin)
                                                  ./build/obj/rt_test_sequence_010.o (symbol from plugin)
chEvtGetAndClearEvents                            ./build/obj/chevents.o (symbol from plugin)
                                                  ./build/obj/rt_test_sequence_010.o (symbol from plugin)
chEvtGetAndClearEventsI                           ./build/obj/chevents.o (symbol from plugin)
chEvtGetAndClearFlags                             ./build/obj/chevents.o (symbol from plugin)
chEvtGetAndClearFlagsI                            ./build/obj/chevents.o (symbol from plugin)
chEvtObjectDispose                                ./build/obj/chevents.o (symbol from plugin)
chEvtObjectInit                                   ./build/obj/chevents.o (symbol from plugin)
                                                  ./build/obj/main.o (symbol from plugin)
                                                  ./build/obj/rt_test_sequence_010.o (symbol from plugin)
                                                  ./build/obj/shell.o (symbol from plugin)
                                                  ./build/obj/hal_serial_usb.o (symbol from plugin)
chEvtRegisterMaskWithFlags                        ./build/obj/chevents.o (symbol from plugin)
                                                  ./build/obj/main.o (symbol from plugin)
                                                  ./build/obj/rt_test_sequence_010.o (symbol from plugin)
chEvtRegisterMaskWithFlagsI                       ./build/obj/chevents.o (symbol from plugin)
chEvtSignal                                       ./build/obj/chevents.o (symbol from plugin)
                                                  ./build/obj/rt_test_sequence_010.o (symbol from plugin)
chEvtSignalI                                      ./build/obj/chevents.o (symbol from plugin)
chEvtUnregister                                   ./build/obj/chevents.o (symbol from plugin)
                                                  ./build/obj/rt_test_sequence_010.o (symbol from plugin)
chEvtWaitAll                                      ./build/obj/chevents.o (symbol from plugin)
                                                  ./build/obj/rt_test_sequence_010.o (symbol from plugin)
chEvtWaitAllTimeout                               ./build/obj/chevents.o (symbol from plugin)
                                                  ./build/obj/rt_test_sequence_010.o (symbol from plugin)
chEvtWaitAny                                      ./build/obj/chevents.o (symbol from plugin)
                                                  ./build/obj/rt_test_sequence_010.o (symbol from plugin)
chEvtWaitAnyTimeout                               ./build/obj/chevents.o (symbol from plugin)
                                                  ./build/obj/rt_test_sequence_010.o (symbol from plugin)
chEvtWaitOne                                      ./build/obj/chevents.o (symbol from plugin)
                                                  ./build/obj/rt_test_sequence_010.o (symbol from plugin)
chEvtWaitOne.constprop.0                          /tmp/ch.elf.PrlmSi.ltrans1.ltrans.o
                                                  /tmp/ch.elf.PrlmSi.ltrans0.ltrans.o
chEvtWaitOneTimeout                               ./build/obj/chevents.o (symbol from plugin)
                                                  ./build/obj/main.o (symbol from plugin)
                                                  ./build/obj/rt_test_sequence_010.o (symbol from plugin)
chEvtWaitOneTimeout.constprop.0                   /tmp/ch.elf.PrlmSi.ltrans1.ltrans.o
                                                  /tmp/ch.elf.PrlmSi.ltrans0.ltrans.o
chFactoryCreateBuffer                             ./build/obj/chfactory.o (symbol from plugin)
                                                  ./build/obj/oslib_test_sequence_009.o (symbol from plugin)
chFactoryCreateMailbox                            ./build/obj/chfactory.o (symbol from plugin)
                                                  ./build/obj/oslib_test_sequence_009.o (symbol from plugin)
chFactoryCreateObjectsFIFO                        ./build/obj/chfactory.o (symbol from plugin)
                                                  ./build/obj/oslib_test_sequence_009.o (symbol from plugin)
chFactoryCreatePipe                               ./build/obj/chfactory.o (symbol from plugin)
                                                  ./build/obj/oslib_test_sequence_009.o (symbol from plugin)
chFactoryCreateSemaphore                          ./build/obj/chfactory.o (symbol from plugin)
                                                  ./build/obj/oslib_test_sequence_009.o (symbol from plugin)
chFactoryFindBuffer                               ./build/obj/chfactory.o (symbol from plugin)
                                                  ./build/obj/oslib_test_sequence_009.o (symbol from plugin)
chFactoryFindMailbox                              ./build/obj/chfactory.o (symbol from plugin)
                                                  ./build/obj/oslib_test_sequence_009.o (symbol from plugin)
chFactoryFindObject                               ./build/obj/chfactory.o (symbol from plugin)
                                                  ./build/obj/oslib_test_sequence_009.o (symbol from plugin)
chFactoryFindObjectByPointer                      ./build/obj/chfactory.o (symbol from plugin)
chFactoryFindObjectsFIFO                          ./build/obj/chfactory.o (symbol from plugin)
                                                  ./build/obj/oslib_test_sequence_009.o (symbol from plugin)
chFactoryFindPipe                                 ./build/obj/chfactory.o (symbol from plugin)
                                                  ./build/obj/oslib_test_sequence_009.o (symbol from plugin)
chFactoryFindSemaphore                            ./build/obj/chfactory.o (symbol from plugin)
                                                  ./build/obj/oslib_test_sequence_009.o (symbol from plugin)
chFactoryRegisterObject                           ./build/obj/chfactory.o (symbol from plugin)
                                                  ./build/obj/oslib_test_sequence_009.o (symbol from plugin)
chFactoryReleaseBuffer                            ./build/obj/chfactory.o (symbol from plugin)
                                                  ./build/obj/oslib_test_sequence_009.o (symbol from plugin)
chFactoryReleaseMailbox                           ./build/obj/chfactory.o (symbol from plugin)
                                                  ./build/obj/oslib_test_sequence_009.o (symbol from plugin)
chFactoryReleaseObject                            ./build/obj/chfactory.o (symbol from plugin)
                                                  ./build/obj/oslib_test_sequence_009.o (symbol from plugin)
chFactoryReleaseObjectsFIFO                       ./build/obj/chfactory.o (symbol from plugin)
                                                  ./build/obj/oslib_test_sequence_009.o (symbol from plugin)
chFactoryReleasePipe                              ./build/obj/chfactory.o (symbol from plugin)
                                                  ./build/obj/oslib_test_sequence_009.o (symbol from plugin)
chFactoryReleaseSemaphore                         ./build/obj/chfactory.o (symbol from plugin)
                                                  ./build/obj/oslib_test_sequence_009.o (symbol from plugin)
chGuardedPoolAllocTimeout                         /tmp/ch.elf.PrlmSi.ltrans0.ltrans.o
                                                  ./build/obj/chmempools.o (symbol from plugin)
                                                  /tmp/ch.elf.PrlmSi.ltrans1.ltrans.o
                                                  ./build/obj/oslib_test_sequence_007.o (symbol from plugin)
                                                  ./build/obj/oslib_test_sequence_004.o (symbol from plugin)
chGuardedPoolAllocTimeoutS                        ./build/obj/chmempools.o (symbol from plugin)
chGuardedPoolFree                                 ./build/obj/chmempools.o (symbol from plugin)
                                                  ./build/obj/oslib_test_sequence_007.o (symbol from plugin)
                                                  ./build/obj/oslib_test_sequence_004.o (symbol from plugin)
chGuardedPoolLoadArray                            ./build/obj/chmempools.o (symbol from plugin)
                                                  ./build/obj/oslib_test_sequence_007.o (symbol from plugin)
                                                  ./build/obj/oslib_test_sequence_004.o (symbol from plugin)
                                                  ./build/obj/chfactory.o (symbol from plugin)
chGuardedPoolObjectInitAligned                    ./build/obj/chmempools.o (symbol from plugin)
                                                  ./build/obj/oslib_test_sequence_007.o (symbol from plugin)
                                                  ./build/obj/oslib_test_sequence_004.o (symbol from plugin)
                                                  ./build/obj/chfactory.o (symbol from plugin)
chHeapAllocAligned                                /tmp/ch.elf.PrlmSi.ltrans0.ltrans.o
                                                  ./build/obj/chmemheaps.o (symbol from plugin)
                                                  /tmp/ch.elf.PrlmSi.ltrans1.ltrans.o
                                                  ./build/obj/oslib_test_sequence_008.o (symbol from plugin)
                                                  ./build/obj/fatfs_syscall.o (symbol from plugin)
                                                  ./build/obj/chfactory.o (symbol from plugin)
                                                  ./build/obj/chdynamic.o (symbol from plugin)
chHeapFree                                        /tmp/ch.elf.PrlmSi.ltrans0.ltrans.o
                                                  ./build/obj/chmemheaps.o (symbol from plugin)
                                                  /tmp/ch.elf.PrlmSi.ltrans1.ltrans.o
                                                  ./build/obj/oslib_test_sequence_008.o (symbol from plugin)
                                                  ./build/obj/fatfs_syscall.o (symbol from plugin)
                                                  ./build/obj/chfactory.o (symbol from plugin)
                                                  ./build/obj/chthreads.o (symbol from plugin)
chHeapIntegrityCheck                              ./build/obj/chmemheaps.o (symbol from plugin)
                                                  ./build/obj/oslib_test_sequence_008.o (symbol from plugin)
chHeapObjectInit                                  ./build/obj/chmemheaps.o (symbol from plugin)
                                                  ./build/obj/oslib_test_sequence_008.o (symbol from plugin)
                                                  ./build/obj/rt_test_sequence_011.o (symbol from plugin)
chHeapStatus                                      /tmp/ch.elf.PrlmSi.ltrans0.ltrans.o
                                                  ./build/obj/chmemheaps.o (symbol from plugin)
                                                  /tmp/ch.elf.PrlmSi.ltrans1.ltrans.o
                                                  ./build/obj/oslib_test_sequence_008.o (symbol from plugin)
                                                  ./build/obj/rt_test_sequence_011.o (symbol from plugin)
                                                  ./build/obj/shell_cmd.o (symbol from plugin)
chInstanceObjectInit                              ./build/obj/chinstances.o (symbol from plugin)
                                                  ./build/obj/chsys.o (symbol from plugin)
chMBFetchI                                        ./build/obj/chmboxes.o (symbol from plugin)
                                                  ./build/obj/oslib_test_sequence_002.o (symbol from plugin)
chMBFetchTimeout                                  ./build/obj/chmboxes.o (symbol from plugin)
                                                  ./build/obj/oslib_test_sequence_004.o (symbol from plugin)
                                                  ./build/obj/oslib_test_sequence_002.o (symbol from plugin)
chMBFetchTimeoutS                                 /tmp/ch.elf.PrlmSi.ltrans0.ltrans.o
                                                  ./build/obj/chmboxes.o (symbol from plugin)
                                                  /tmp/ch.elf.PrlmSi.ltrans1.ltrans.o
chMBObjectInit                                    ./build/obj/chmboxes.o (symbol from plugin)
                                                  ./build/obj/oslib_test_sequence_004.o (symbol from plugin)
                                                  ./build/obj/oslib_test_sequence_002.o (symbol from plugin)
                                                  ./build/obj/chfactory.o (symbol from plugin)
chMBPostAheadI                                    ./build/obj/chmboxes.o (symbol from plugin)
                                                  ./build/obj/oslib_test_sequence_002.o (symbol from plugin)
chMBPostAheadTimeout                              ./build/obj/chmboxes.o (symbol from plugin)
                                                  ./build/obj/oslib_test_sequence_002.o (symbol from plugin)
chMBPostAheadTimeoutS                             ./build/obj/chmboxes.o (symbol from plugin)
chMBPostI                                         ./build/obj/chmboxes.o (symbol from plugin)
                                                  ./build/obj/oslib_test_sequence_002.o (symbol from plugin)
chMBPostTimeout                                   /tmp/ch.elf.PrlmSi.ltrans0.ltrans.o
                                                  ./build/obj/chmboxes.o (symbol from plugin)
                                                  /tmp/ch.elf.PrlmSi.ltrans1.ltrans.o
                                                  ./build/obj/oslib_test_sequence_004.o (symbol from plugin)
                                                  ./build/obj/oslib_test_sequence_002.o (symbol from plugin)
chMBPostTimeoutS                                  ./build/obj/chmboxes.o (symbol from plugin)
chMBReset                                         ./build/obj/chmboxes.o (symbol from plugin)
                                                  ./build/obj/oslib_test_sequence_002.o (symbol from plugin)
chMBResetI                                        ./build/obj/chmboxes.o (symbol from plugin)
                                                  ./build/obj/oslib_test_sequence_002.o (symbol from plugin)
chMemIsAddressExecutableX                         ./build/obj/chmemchecks.o (symbol from plugin)
                                                  ./build/obj/chmemheaps.o (symbol from plugin)
chMemIsPointersArrayWithinX                       ./build/obj/chmemchecks.o (symbol from plugin)
chMemIsSpaceContainedX                            ./build/obj/chmemchecks.o (symbol from plugin)
chMemIsSpaceReadableX                             ./build/obj/chmemchecks.o (symbol from plugin)
chMemIsSpaceWritableX                             ./build/obj/chmemchecks.o (symbol from plugin)
chMemIsStringWithinX                              ./build/obj/chmemchecks.o (symbol from plugin)
chMsgPollS                                        ./build/obj/chmsg.o (symbol from plugin)
chMsgRelease                                      ./build/obj/chmsg.o (symbol from plugin)
                                                  ./build/obj/rt_test_sequence_012.o (symbol from plugin)
                                                  ./build/obj/rt_test_sequence_009.o (symbol from plugin)
                                                  ./build/obj/chdelegates.o (symbol from plugin)
chMsgSend                                         ./build/obj/chmsg.o (symbol from plugin)
                                                  ./build/obj/rt_test_sequence_012.o (symbol from plugin)
                                                  ./build/obj/rt_test_sequence_009.o (symbol from plugin)
                                                  ./build/obj/chdelegates.o (symbol from plugin)
chMsgWaitS                                        ./build/obj/chmsg.o (symbol from plugin)
                                                  ./build/obj/rt_test_sequence_012.o (symbol from plugin)
                                                  ./build/obj/rt_test_sequence_009.o (symbol from plugin)
                                                  ./build/obj/chdelegates.o (symbol from plugin)
chMsgWaitTimeoutS                                 ./build/obj/chmsg.o (symbol from plugin)
                                                  ./build/obj/chdelegates.o (symbol from plugin)
chMtxLock                                         ./build/obj/chmtx.o (symbol from plugin)
                                                  ./build/obj/rt_test_sequence_012.o (symbol from plugin)
                                                  ./build/obj/rt_test_sequence_008.o (symbol from plugin)
                                                  ./build/obj/chfactory.o (symbol from plugin)
                                                  ./build/obj/chpipes.o (symbol from plugin)
                                                  ./build/obj/chmemheaps.o (symbol from plugin)
chMtxLockS                                        /tmp/ch.elf.PrlmSi.ltrans0.ltrans.o
                                                  ./build/obj/chmtx.o (symbol from plugin)
                                                  /tmp/ch.elf.PrlmSi.ltrans1.ltrans.o
                                                  ./build/obj/rt_test_sequence_008.o (symbol from plugin)
                                                  ./build/obj/chcond.o (symbol from plugin)
chMtxObjectDispose                                ./build/obj/chmtx.o (symbol from plugin)
chMtxObjectInit                                   ./build/obj/chmtx.o (symbol from plugin)
                                                  ./build/obj/rt_test_sequence_012.o (symbol from plugin)
                                                  ./build/obj/rt_test_sequence_008.o (symbol from plugin)
                                                  ./build/obj/chfactory.o (symbol from plugin)
                                                  ./build/obj/chpipes.o (symbol from plugin)
                                                  ./build/obj/chmemheaps.o (symbol from plugin)
chMtxTryLock                                      ./build/obj/chmtx.o (symbol from plugin)
                                                  ./build/obj/rt_test_sequence_008.o (symbol from plugin)
chMtxTryLockS                                     ./build/obj/chmtx.o (symbol from plugin)
chMtxUnlock                                       /tmp/ch.elf.PrlmSi.ltrans0.ltrans.o
                                                  ./build/obj/chmtx.o (symbol from plugin)
                                                  /tmp/ch.elf.PrlmSi.ltrans1.ltrans.o
                                                  ./build/obj/rt_test_sequence_012.o (symbol from plugin)
                                                  ./build/obj/rt_test_sequence_008.o (symbol from plugin)
                                                  ./build/obj/chfactory.o (symbol from plugin)
                                                  ./build/obj/chpipes.o (symbol from plugin)
                                                  ./build/obj/chmemheaps.o (symbol from plugin)
chMtxUnlockAll                                    ./build/obj/chmtx.o (symbol from plugin)
                                                  ./build/obj/rt_test_sequence_008.o (symbol from plugin)
chMtxUnlockAllS                                   ./build/obj/chmtx.o (symbol from plugin)
chMtxUnlockS                                      ./build/obj/chmtx.o (symbol from plugin)
                                                  ./build/obj/rt_test_sequence_008.o (symbol from plugin)
                                                  ./build/obj/chcond.o (symbol from plugin)
chPipeObjectInit                                  ./build/obj/chpipes.o (symbol from plugin)
                                                  ./build/obj/oslib_test_sequence_003.o (symbol from plugin)
                                                  ./build/obj/chfactory.o (symbol from plugin)
chPipeReadTimeout                                 ./build/obj/chpipes.o (symbol from plugin)
                                                  ./build/obj/oslib_test_sequence_003.o (symbol from plugin)
chPipeReset                                       ./build/obj/chpipes.o (symbol from plugin)
                                                  ./build/obj/oslib_test_sequence_003.o (symbol from plugin)
chPipeWriteTimeout                                ./build/obj/chpipes.o (symbol from plugin)
                                                  ./build/obj/oslib_test_sequence_003.o (symbol from plugin)
chPoolAlloc                                       ./build/obj/chmempools.o (symbol from plugin)
                                                  ./build/obj/oslib_test_sequence_007.o (symbol from plugin)
                                                  ./build/obj/rt_test_sequence_011.o (symbol from plugin)
                                                  ./build/obj/chfactory.o (symbol from plugin)
                                                  ./build/obj/chdynamic.o (symbol from plugin)
chPoolAllocI                                      ./build/obj/chmempools.o (symbol from plugin)
chPoolFree                                        ./build/obj/chmempools.o (symbol from plugin)
                                                  ./build/obj/oslib_test_sequence_007.o (symbol from plugin)
                                                  ./build/obj/rt_test_sequence_011.o (symbol from plugin)
                                                  ./build/obj/chfactory.o (symbol from plugin)
                                                  ./build/obj/chthreads.o (symbol from plugin)
chPoolFreeI                                       ./build/obj/chmempools.o (symbol from plugin)
chPoolLoadArray                                   ./build/obj/chmempools.o (symbol from plugin)
                                                  ./build/obj/oslib_test_sequence_007.o (symbol from plugin)
chPoolObjectInitAligned                           ./build/obj/chmempools.o (symbol from plugin)
                                                  ./build/obj/oslib_test_sequence_007.o (symbol from plugin)
                                                  ./build/obj/rt_test_sequence_011.o (symbol from plugin)
                                                  ./build/obj/chfactory.o (symbol from plugin)
chRFCUCollectFaultsI                              ./build/obj/chrfcu.o (symbol from plugin)
                                                  ./build/obj/chvt.o (symbol from plugin)
chRFCUGetAndClearFaultsI                          ./build/obj/chrfcu.o (symbol from plugin)
chRegFindThreadByName                             ./build/obj/chregistry.o (symbol from plugin)
chRegFindThreadByPointer                          ./build/obj/chregistry.o (symbol from plugin)
chRegFindThreadByWorkingArea                      ./build/obj/chregistry.o (symbol from plugin)
chRegFirstThread                                  ./build/obj/chregistry.o (symbol from plugin)
                                                  ./build/obj/shell_cmd.o (symbol from plugin)
chRegNextThread                                   ./build/obj/chregistry.o (symbol from plugin)
                                                  ./build/obj/shell_cmd.o (symbol from plugin)
chSchDoPreemption                                 /tmp/ch.elf.PrlmSi.ltrans0.ltrans.o
                                                  ./build/obj/chschd.o (symbol from plugin)
                                                  ./build/obj/chcoreasm.o
chSchDoYieldS                                     ./build/obj/chschd.o (symbol from plugin)
                                                  ./build/obj/chthreads.o (symbol from plugin)
chSchGoSleepS                                     ./build/obj/chschd.o (symbol from plugin)
                                                  ./build/obj/rt_test_sequence_012.o (symbol from plugin)
                                                  ./build/obj/chmsg.o (symbol from plugin)
                                                  ./build/obj/chevents.o (symbol from plugin)
                                                  ./build/obj/chcond.o (symbol from plugin)
                                                  ./build/obj/chmtx.o (symbol from plugin)
                                                  ./build/obj/chsem.o (symbol from plugin)
                                                  ./build/obj/chthreads.o (symbol from plugin)
chSchGoSleepTimeoutS                              /tmp/ch.elf.PrlmSi.ltrans0.ltrans.o
                                                  ./build/obj/chschd.o (symbol from plugin)
                                                  /tmp/ch.elf.PrlmSi.ltrans1.ltrans.o
                                                  ./build/obj/chmsg.o (symbol from plugin)
                                                  ./build/obj/chevents.o (symbol from plugin)
                                                  ./build/obj/chcond.o (symbol from plugin)
                                                  ./build/obj/chsem.o (symbol from plugin)
                                                  ./build/obj/chthreads.o (symbol from plugin)
chSchIsPreemptionRequired                         ./build/obj/chschd.o (symbol from plugin)
                                                  ./build/obj/chcore.o (symbol from plugin)
chSchPreemption                                   ./build/obj/chschd.o (symbol from plugin)
chSchReadyI                                       ./build/obj/chschd.o (symbol from plugin)
                                                  ./build/obj/chmsg.o (symbol from plugin)
                                                  ./build/obj/chevents.o (symbol from plugin)
                                                  ./build/obj/chcond.o (symbol from plugin)
                                                  ./build/obj/chmtx.o (symbol from plugin)
                                                  ./build/obj/chsem.o (symbol from plugin)
                                                  ./build/obj/chthreads.o (symbol from plugin)
chSchRescheduleS                                  ./build/obj/chschd.o (symbol from plugin)
                                                  ./build/obj/oslib_test_sequence_006.o (symbol from plugin)
                                                  ./build/obj/rt_test_sequence_008.o (symbol from plugin)
                                                  ./build/obj/rt_test_sequence_007.o (symbol from plugin)
                                                  ./build/obj/rt_test_sequence_006.o (symbol from plugin)
                                                  ./build/obj/chpipes.o (symbol from plugin)
                                                  ./build/obj/chmempools.o (symbol from plugin)
                                                  ./build/obj/chmboxes.o (symbol from plugin)
                                                  ./build/obj/chevents.o (symbol from plugin)
                                                  ./build/obj/chcond.o (symbol from plugin)
                                                  ./build/obj/chmtx.o (symbol from plugin)
                                                  ./build/obj/chsem.o (symbol from plugin)
                                                  ./build/obj/chthreads.o (symbol from plugin)
                                                  ./build/obj/chsys.o (symbol from plugin)
                                                  ./build/obj/hal_usb.o (symbol from plugin)
                                                  ./build/obj/hal_serial_usb.o (symbol from plugin)
chSchSelectFirst                                  ./build/obj/chschd.o (symbol from plugin)
chSchWakeupS                                      /tmp/ch.elf.PrlmSi.ltrans0.ltrans.o
                                                  ./build/obj/chschd.o (symbol from plugin)
                                                  /tmp/ch.elf.PrlmSi.ltrans1.ltrans.o
                                                  ./build/obj/rt_test_sequence_012.o (symbol from plugin)
                                                  ./build/obj/chdynamic.o (symbol from plugin)
                                                  ./build/obj/chmsg.o (symbol from plugin)
                                                  ./build/obj/chcond.o (symbol from plugin)
                                                  ./build/obj/chsem.o (symbol from plugin)
                                                  ./build/obj/chthreads.o (symbol from plugin)
chSemAddCounterI                                  ./build/obj/chsem.o (symbol from plugin)
                                                  ./build/obj/rt_test_sequence_007.o (symbol from plugin)
chSemObjectDispose                                ./build/obj/chsem.o (symbol from plugin)
chSemObjectInit                                   ./build/obj/chsem.o (symbol from plugin)
                                                  ./build/obj/rt_test_sequence_012.o (symbol from plugin)
                                                  ./build/obj/rt_test_sequence_007.o (symbol from plugin)
                                                  ./build/obj/chfactory.o (symbol from plugin)
                                                  ./build/obj/chobjcaches.o (symbol from plugin)
                                                  ./build/obj/chmempools.o (symbol from plugin)
chSemResetWithMessage                             ./build/obj/chsem.o (symbol from plugin)
                                                  ./build/obj/rt_test_sequence_012.o (symbol from plugin)
                                                  ./build/obj/rt_test_sequence_007.o (symbol from plugin)
chSemResetWithMessage.constprop.0                 /tmp/ch.elf.PrlmSi.ltrans1.ltrans.o
                                                  /tmp/ch.elf.PrlmSi.ltrans0.ltrans.o
chSemResetWithMessageI                            ./build/obj/chsem.o (symbol from plugin)
chSemSignal                                       ./build/obj/chsem.o (symbol from plugin)
                                                  ./build/obj/rt_test_sequence_012.o (symbol from plugin)
                                                  ./build/obj/rt_test_sequence_007.o (symbol from plugin)
chSemSignalI                                      /tmp/ch.elf.PrlmSi.ltrans0.ltrans.o
                                                  ./build/obj/chsem.o (symbol from plugin)
                                                  /tmp/ch.elf.PrlmSi.ltrans1.ltrans.o
                                                  ./build/obj/rt_test_sequence_007.o (symbol from plugin)
                                                  ./build/obj/chobjcaches.o (symbol from plugin)
                                                  ./build/obj/chmempools.o (symbol from plugin)
chSemSignalWait                                   ./build/obj/chsem.o (symbol from plugin)
                                                  ./build/obj/rt_test_sequence_007.o (symbol from plugin)
chSemSignalWait.constprop.0.isra.0                /tmp/ch.elf.PrlmSi.ltrans1.ltrans.o
                                                  /tmp/ch.elf.PrlmSi.ltrans0.ltrans.o
chSemWait                                         ./build/obj/chsem.o (symbol from plugin)
                                                  ./build/obj/rt_test_sequence_012.o (symbol from plugin)
                                                  ./build/obj/rt_test_sequence_007.o (symbol from plugin)
chSemWaitS                                        ./build/obj/chsem.o (symbol from plugin)
                                                  ./build/obj/chobjcaches.o (symbol from plugin)
chSemWaitTimeout                                  ./build/obj/chsem.o (symbol from plugin)
                                                  ./build/obj/rt_test_sequence_007.o (symbol from plugin)
chSemWaitTimeoutS                                 ./build/obj/chsem.o (symbol from plugin)
                                                  ./build/obj/chmempools.o (symbol from plugin)
chSysGetIdleThreadX                               ./build/obj/chsys.o (symbol from plugin)
chSysGetStatusAndLockX                            ./build/obj/chsys.o (symbol from plugin)
                                                  ./build/obj/rt_test_sequence_002.o (symbol from plugin)
chSysHalt                                         ./build/obj/chsys.o (symbol from plugin)
chSysInit                                         ./build/obj/chsys.o (symbol from plugin)
                                                  ./build/obj/main.o (symbol from plugin)
chSysIntegrityCheckI                              ./build/obj/chsys.o (symbol from plugin)
                                                  ./build/obj/rt_test_sequence_002.o (symbol from plugin)
chSysIsCounterWithinX                             ./build/obj/chsys.o (symbol from plugin)
chSysPolledDelayX                                 ./build/obj/chsys.o (symbol from plugin)
chSysRestoreStatusX                               ./build/obj/chsys.o (symbol from plugin)
                                                  ./build/obj/rt_test_sequence_002.o (symbol from plugin)
chSysTimerHandlerI                                ./build/obj/chsys.o (symbol from plugin)
                                                  ./build/obj/hal_st_lld.o (symbol from plugin)
chSysWaitSystemState                              ./build/obj/chsys.o (symbol from plugin)
chTMChainMeasurementToX                           ./build/obj/chtm.o (symbol from plugin)
chTMObjectDispose                                 ./build/obj/chtm.o (symbol from plugin)
chTMObjectInit                                    ./build/obj/chtm.o (symbol from plugin)
                                                  ./build/obj/chsys.o (symbol from plugin)
chTMStartMeasurementX                             /tmp/ch.elf.PrlmSi.ltrans0.ltrans.o
                                                  ./build/obj/chtm.o (symbol from plugin)
                                                  /tmp/ch.elf.PrlmSi.ltrans1.ltrans.o
                                                  ./build/obj/chsys.o (symbol from plugin)
chTMStopMeasurementX                              /tmp/ch.elf.PrlmSi.ltrans0.ltrans.o
                                                  ./build/obj/chtm.o (symbol from plugin)
                                                  /tmp/ch.elf.PrlmSi.ltrans1.ltrans.o
                                                  ./build/obj/chsys.o (symbol from plugin)
chThdAddRef                                       ./build/obj/chthreads.o (symbol from plugin)
chThdCreate                                       ./build/obj/chthreads.o (symbol from plugin)
                                                  ./build/obj/oslib_test_sequence_005.o (symbol from plugin)
                                                  ./build/obj/oslib_test_sequence_004.o (symbol from plugin)
chThdCreateFromHeap                               /tmp/ch.elf.PrlmSi.ltrans0.ltrans.o
                                                  ./build/obj/chdynamic.o (symbol from plugin)
                                                  /tmp/ch.elf.PrlmSi.ltrans1.ltrans.o
                                                  ./build/obj/main.o (symbol from plugin)
                                                  ./build/obj/rt_test_sequence_011.o (symbol from plugin)
                                                  ./build/obj/shell_cmd.o (symbol from plugin)
chThdCreateFromMemoryPool                         ./build/obj/chdynamic.o (symbol from plugin)
                                                  ./build/obj/rt_test_sequence_011.o (symbol from plugin)
chThdCreateFromMemoryPool.constprop.0             /tmp/ch.elf.PrlmSi.ltrans1.ltrans.o
                                                  /tmp/ch.elf.PrlmSi.ltrans0.ltrans.o
chThdCreateI                                      ./build/obj/chthreads.o (symbol from plugin)
                                                  ./build/obj/chinstances.o (symbol from plugin)
chThdCreateStatic                                 /tmp/ch.elf.PrlmSi.ltrans0.ltrans.o
                                                  ./build/obj/chthreads.o (symbol from plugin)
                                                  /tmp/ch.elf.PrlmSi.ltrans1.ltrans.o
                                                  ./build/obj/main.o (symbol from plugin)
                                                  ./build/obj/rt_test_sequence_012.o (symbol from plugin)
                                                  ./build/obj/rt_test_sequence_010.o (symbol from plugin)
                                                  ./build/obj/rt_test_sequence_009.o (symbol from plugin)
                                                  ./build/obj/rt_test_sequence_008.o (symbol from plugin)
                                                  ./build/obj/rt_test_sequence_007.o (symbol from plugin)
                                                  ./build/obj/rt_test_sequence_006.o (symbol from plugin)
                                                  ./build/obj/rt_test_sequence_005.o (symbol from plugin)
chThdCreateSuspended                              ./build/obj/chthreads.o (symbol from plugin)
chThdCreateSuspendedI                             /tmp/ch.elf.PrlmSi.ltrans0.ltrans.o
                                                  ./build/obj/chthreads.o (symbol from plugin)
                                                  /tmp/ch.elf.PrlmSi.ltrans1.ltrans.o
                                                  ./build/obj/chdynamic.o (symbol from plugin)
chThdDequeueAllI                                  ./build/obj/chthreads.o (symbol from plugin)
                                                  ./build/obj/chmboxes.o (symbol from plugin)
                                                  ./build/obj/hal_serial_usb.o (symbol from plugin)
                                                  ./build/obj/hal_queues.o (symbol from plugin)
                                                  ./build/obj/hal_buffers.o (symbol from plugin)
chThdDequeueNextI                                 ./build/obj/chthreads.o (symbol from plugin)
                                                  ./build/obj/chmboxes.o (symbol from plugin)
                                                  ./build/obj/hal_queues.o (symbol from plugin)
                                                  ./build/obj/hal_buffers.o (symbol from plugin)
chThdEnqueueTimeoutS                              ./build/obj/chthreads.o (symbol from plugin)
                                                  ./build/obj/chmboxes.o (symbol from plugin)
                                                  ./build/obj/hal_queues.o (symbol from plugin)
                                                  ./build/obj/hal_buffers.o (symbol from plugin)
chThdExit                                         /tmp/ch.elf.PrlmSi.ltrans0.ltrans.o
                                                  ./build/obj/chthreads.o (symbol from plugin)
                                                  ./build/obj/oslib_test_sequence_005.o (symbol from plugin)
                                                  ./build/obj/rt_test_sequence_012.o (symbol from plugin)
                                                  ./build/obj/chcoreasm.o
chThdExitS                                        /tmp/ch.elf.PrlmSi.ltrans0.ltrans.o
                                                  ./build/obj/chthreads.o (symbol from plugin)
                                                  /tmp/ch.elf.PrlmSi.ltrans1.ltrans.o
                                                  ./build/obj/shell.o (symbol from plugin)
chThdQueueObjectDispose                           ./build/obj/chthreads.o (symbol from plugin)
chThdQueueObjectInit                              ./build/obj/chthreads.o (symbol from plugin)
                                                  ./build/obj/chmboxes.o (symbol from plugin)
                                                  ./build/obj/hal_queues.o (symbol from plugin)
                                                  ./build/obj/hal_buffers.o (symbol from plugin)
chThdRelease                                      ./build/obj/chthreads.o (symbol from plugin)
                                                  ./build/obj/rt_test_sequence_012.o (symbol from plugin)
                                                  ./build/obj/chregistry.o (symbol from plugin)
chThdRelease.part.0                               /tmp/ch.elf.PrlmSi.ltrans0.ltrans.o
                                                  /tmp/ch.elf.PrlmSi.ltrans1.ltrans.o
chThdResume                                       ./build/obj/chthreads.o (symbol from plugin)
                                                  ./build/obj/chpipes.o (symbol from plugin)
chThdResumeI                                      ./build/obj/chthreads.o (symbol from plugin)
                                                  ./build/obj/rt_test_sequence_006.o (symbol from plugin)
                                                  ./build/obj/chpipes.o (symbol from plugin)
                                                  ./build/obj/hal_sdc_lld.o (symbol from plugin)
chThdResumeS                                      ./build/obj/chthreads.o (symbol from plugin)
chThdSetPriority                                  ./build/obj/chthreads.o (symbol from plugin)
                                                  ./build/obj/rt_test_sequence_005.o (symbol from plugin)
chThdSleep                                        ./build/obj/chthreads.o (symbol from plugin)
                                                  ./build/obj/main.o (symbol from plugin)
                                                  ./build/obj/oslib_test_sequence_004.o (symbol from plugin)
                                                  ./build/obj/rt_test_sequence_012.o (symbol from plugin)
                                                  ./build/obj/rt_test_sequence_010.o (symbol from plugin)
                                                  ./build/obj/rt_test_sequence_008.o (symbol from plugin)
                                                  ./build/obj/rt_test_sequence_007.o (symbol from plugin)
                                                  ./build/obj/rt_test_sequence_005.o (symbol from plugin)
                                                  ./build/obj/rt_test_sequence_002.o (symbol from plugin)
                                                  ./build/obj/rt_test_root.o (symbol from plugin)
                                                  ./build/obj/ch_test.o (symbol from plugin)
                                                  ./build/obj/hal_sdc_lld.o (symbol from plugin)
                                                  ./build/obj/hal_usb.o (symbol from plugin)
                                                  ./build/obj/hal_sdc.o (symbol from plugin)
                                                  ./build/obj/hal_flash.o (symbol from plugin)
chThdSleepUntil                                   ./build/obj/chthreads.o (symbol from plugin)
                                                  ./build/obj/rt_test_sequence_005.o (symbol from plugin)
chThdSleepUntilWindowed                           ./build/obj/chthreads.o (symbol from plugin)
chThdStart                                        ./build/obj/chthreads.o (symbol from plugin)
chThdSuspendS                                     ./build/obj/chthreads.o (symbol from plugin)
chThdSuspendTimeoutS                              ./build/obj/chthreads.o (symbol from plugin)
                                                  ./build/obj/rt_test_sequence_006.o (symbol from plugin)
                                                  ./build/obj/chpipes.o (symbol from plugin)
                                                  ./build/obj/hal_sdc_lld.o (symbol from plugin)
chThdTerminate                                    ./build/obj/chthreads.o (symbol from plugin)
                                                  ./build/obj/rt_test_root.o (symbol from plugin)
chThdWait                                         /tmp/ch.elf.PrlmSi.ltrans0.ltrans.o
                                                  ./build/obj/chthreads.o (symbol from plugin)
                                                  /tmp/ch.elf.PrlmSi.ltrans1.ltrans.o
                                                  ./build/obj/main.o (symbol from plugin)
                                                  ./build/obj/oslib_test_sequence_005.o (symbol from plugin)
                                                  ./build/obj/oslib_test_sequence_004.o (symbol from plugin)
                                                  ./build/obj/rt_test_sequence_012.o (symbol from plugin)
                                                  ./build/obj/rt_test_root.o (symbol from plugin)
                                                  ./build/obj/shell_cmd.o (symbol from plugin)
chThdYield                                        ./build/obj/chthreads.o (symbol from plugin)
                                                  ./build/obj/rt_test_sequence_012.o (symbol from plugin)
chVTDoResetI                                      /tmp/ch.elf.PrlmSi.ltrans0.ltrans.o
                                                  ./build/obj/chvt.o (symbol from plugin)
                                                  /tmp/ch.elf.PrlmSi.ltrans1.ltrans.o
                                                  ./build/obj/main.o (symbol from plugin)
                                                  ./build/obj/rt_test_sequence_012.o (symbol from plugin)
                                                  ./build/obj/rt_test_sequence_002.o (symbol from plugin)
                                                  ./build/obj/chschd.o (symbol from plugin)
chVTDoSetContinuousI                              ./build/obj/chvt.o (symbol from plugin)
chVTDoSetI                                        ./build/obj/chvt.o (symbol from plugin)
                                                  ./build/obj/main.o (symbol from plugin)
                                                  ./build/obj/rt_test_sequence_012.o (symbol from plugin)
                                                  ./build/obj/rt_test_sequence_002.o (symbol from plugin)
                                                  ./build/obj/chschd.o (symbol from plugin)
chVTDoTickI                                       ./build/obj/chvt.o (symbol from plugin)
                                                  ./build/obj/chsys.o (symbol from plugin)
chVTGetRemainingIntervalI                         ./build/obj/chvt.o (symbol from plugin)
chVTGetTimeStampI                                 ./build/obj/chvt.o (symbol from plugin)
                                                  ./build/obj/rt_test_sequence_004.o (symbol from plugin)
chVTObjectDispose                                 ./build/obj/chvt.o (symbol from plugin)
chVTObjectInit                                    ./build/obj/chvt.o (symbol from plugin)
                                                  ./build/obj/rt_test_sequence_002.o (symbol from plugin)
chVTResetTimeStampI                               ./build/obj/chvt.o (symbol from plugin)
ch_core0_cfg                                      ./build/obj/chsys.o (symbol from plugin)
ch_debug                                          ./build/obj/chregistry.o (symbol from plugin)
                                                  ./build/obj/chinstances.o (symbol from plugin)
ch_factory                                        ./build/obj/chfactory.o (symbol from plugin)
ch_memcore                                        /tmp/ch.elf.PrlmSi.ltrans0.ltrans.o
                                                  ./build/obj/chmemcore.o (symbol from plugin)
                                                  /tmp/ch.elf.PrlmSi.ltrans1.ltrans.o
ch_system                                         /tmp/ch.elf.PrlmSi.ltrans0.ltrans.o
                                                  ./build/obj/chsys.o (symbol from plugin)
                                                  /tmp/ch.elf.PrlmSi.ltrans1.ltrans.o
                                                  ./build/obj/chtm.o (symbol from plugin)
                                                  ./build/obj/chinstances.o (symbol from plugin)
ch_test.c.4ca83f21                                /tmp/cc0mLl4C.debug.temp.o
                                                  /tmp/ch.elf.PrlmSi.ltrans1.ltrans.o
                                                  /tmp/ch.elf.PrlmSi.ltrans0.ltrans.o
ch_test_printf.c.6372d6af                         /tmp/ccndXnHi.debug.temp.o
                                                  /tmp/ch.elf.PrlmSi.ltrans1.ltrans.o
                                                  /tmp/ch.elf.PrlmSi.ltrans0.ltrans.o
chcond.c.6a095e4c                                 /tmp/cc1ZRlzA.debug.temp.o
                                                  /tmp/ch.elf.PrlmSi.ltrans0.ltrans.o
chcore.c.fb17477f                                 /tmp/cc5lXbZN.debug.temp.o
                                                  /tmp/ch.elf.PrlmSi.ltrans1.ltrans.o
                                                  /tmp/ch.elf.PrlmSi.ltrans0.ltrans.o
chdebug.c.35941f84                                /tmp/cc01gUbW.debug.temp.o
chdelegates.c.418623d2                            /tmp/cc17rajW.debug.temp.o
                                                  /tmp/ch.elf.PrlmSi.ltrans1.ltrans.o
                                                  /tmp/ch.elf.PrlmSi.ltrans0.ltrans.o
chdynamic.c.11cf8e10                              /tmp/ccUGMPYj.debug.temp.o
                                                  /tmp/ch.elf.PrlmSi.ltrans1.ltrans.o
                                                  /tmp/ch.elf.PrlmSi.ltrans0.ltrans.o
check_fs.lto_priv.0                               /tmp/ch.elf.PrlmSi.ltrans0.ltrans.o
                                                  /tmp/ch.elf.PrlmSi.ltrans1.ltrans.o
chevents.c.1b9c01b0                               /tmp/ccbebI6x.debug.temp.o
                                                  /tmp/ch.elf.PrlmSi.ltrans1.ltrans.o
                                                  /tmp/ch.elf.PrlmSi.ltrans0.ltrans.o
chfactory.c.40dd61ff                              /tmp/ccRiTwwv.debug.temp.o
                                                  /tmp/ch.elf.PrlmSi.ltrans1.ltrans.o
                                                  /tmp/ch.elf.PrlmSi.ltrans0.ltrans.o
chinstances.c.640642c4                            /tmp/ccjSX2Ob.debug.temp.o
                                                  /tmp/ch.elf.PrlmSi.ltrans1.ltrans.o
                                                  /tmp/ch.elf.PrlmSi.ltrans0.ltrans.o
chmboxes.c.ff21a53d                               /tmp/ccB9BqGy.debug.temp.o
                                                  /tmp/ch.elf.PrlmSi.ltrans1.ltrans.o
                                                  /tmp/ch.elf.PrlmSi.ltrans0.ltrans.o
chmemchecks.c.1e576e8c                            /tmp/ccodWYrd.debug.temp.o
chmemcore.c.69829e73                              /tmp/cc16Z52C.debug.temp.o
                                                  /tmp/ch.elf.PrlmSi.ltrans1.ltrans.o
                                                  /tmp/ch.elf.PrlmSi.ltrans0.ltrans.o
chmemheaps.c.006f8cfc                             /tmp/ccTQhJCg.debug.temp.o
                                                  /tmp/ch.elf.PrlmSi.ltrans1.ltrans.o
                                                  /tmp/ch.elf.PrlmSi.ltrans0.ltrans.o
chmempools.c.3bafb48a                             /tmp/cc9QLLBY.debug.temp.o
                                                  /tmp/ch.elf.PrlmSi.ltrans1.ltrans.o
                                                  /tmp/ch.elf.PrlmSi.ltrans0.ltrans.o
chmsg.c.01e0d2fe                                  /tmp/cc6XSnw1.debug.temp.o
                                                  /tmp/ch.elf.PrlmSi.ltrans1.ltrans.o
                                                  /tmp/ch.elf.PrlmSi.ltrans0.ltrans.o
chmtx.c.8d92ae73                                  /tmp/ccznPcBe.debug.temp.o
                                                  /tmp/ch.elf.PrlmSi.ltrans1.ltrans.o
                                                  /tmp/ch.elf.PrlmSi.ltrans0.ltrans.o
chobjcaches.c.ec079792                            /tmp/cc4HGXfh.debug.temp.o
                                                  /tmp/ch.elf.PrlmSi.ltrans1.ltrans.o
chpipes.c.43e3de60                                /tmp/cclNzKC6.debug.temp.o
                                                  /tmp/ch.elf.PrlmSi.ltrans1.ltrans.o
chprintf                                          /tmp/ch.elf.PrlmSi.ltrans0.ltrans.o
                                                  ./build/obj/chprintf.o (symbol from plugin)
                                                  /tmp/ch.elf.PrlmSi.ltrans1.ltrans.o
                                                  ./build/obj/main.o (symbol from plugin)
                                                  ./build/obj/shell_cmd.o (symbol from plugin)
                                                  ./build/obj/shell.o (symbol from plugin)
chprintf.c.1a297c27                               /tmp/ccKQFrOn.debug.temp.o
                                                  /tmp/ch.elf.PrlmSi.ltrans1.ltrans.o
                                                  /tmp/ch.elf.PrlmSi.ltrans0.ltrans.o
chregistry.c.b1090db5                             /tmp/ccrhzjTR.debug.temp.o
                                                  /tmp/ch.elf.PrlmSi.ltrans1.ltrans.o
                                                  /tmp/ch.elf.PrlmSi.ltrans0.ltrans.o
chrfcu.c.266597f3                                 /tmp/ccQRzAUa.debug.temp.o
                                                  /tmp/ch.elf.PrlmSi.ltrans1.ltrans.o
                                                  /tmp/ch.elf.PrlmSi.ltrans0.ltrans.o
chscanf                                           ./build/obj/chscanf.o (symbol from plugin)
chscanf.c.5830d8cd                                /tmp/ccHTbylR.debug.temp.o
chschd.c.0b263881                                 /tmp/ccAWails.debug.temp.o
                                                  /tmp/ch.elf.PrlmSi.ltrans1.ltrans.o
                                                  /tmp/ch.elf.PrlmSi.ltrans0.ltrans.o
chsem.c.25c7c21d                                  /tmp/ccnnleDx.debug.temp.o
                                                  /tmp/ch.elf.PrlmSi.ltrans1.ltrans.o
                                                  /tmp/ch.elf.PrlmSi.ltrans0.ltrans.o
chsnprintf                                        ./build/obj/chprintf.o (symbol from plugin)
chsnscanf                                         ./build/obj/chscanf.o (symbol from plugin)
chsys.c.9e4a00ee                                  /tmp/ccGoV6cT.debug.temp.o
                                                  /tmp/ch.elf.PrlmSi.ltrans1.ltrans.o
                                                  /tmp/ch.elf.PrlmSi.ltrans0.ltrans.o
chtest                                            /tmp/ch.elf.PrlmSi.ltrans0.ltrans.o
                                                  ./build/obj/ch_test.o (symbol from plugin)
                                                  /tmp/ch.elf.PrlmSi.ltrans1.ltrans.o
                                                  ./build/obj/oslib_test_sequence_009.o (symbol from plugin)
                                                  ./build/obj/oslib_test_sequence_008.o (symbol from plugin)
                                                  ./build/obj/oslib_test_sequence_007.o (symbol from plugin)
                                                  ./build/obj/oslib_test_sequence_006.o (symbol from plugin)
                                                  ./build/obj/oslib_test_sequence_005.o (symbol from plugin)
                                                  ./build/obj/oslib_test_sequence_004.o (symbol from plugin)
                                                  ./build/obj/oslib_test_sequence_003.o (symbol from plugin)
                                                  ./build/obj/oslib_test_sequence_002.o (symbol from plugin)
                                                  ./build/obj/oslib_test_sequence_001.o (symbol from plugin)
                                                  ./build/obj/rt_test_sequence_012.o (symbol from plugin)
                                                  ./build/obj/rt_test_sequence_011.o (symbol from plugin)
                                                  ./build/obj/rt_test_sequence_010.o (symbol from plugin)
                                                  ./build/obj/rt_test_sequence_009.o (symbol from plugin)
                                                  ./build/obj/rt_test_sequence_008.o (symbol from plugin)
                                                  ./build/obj/rt_test_sequence_007.o (symbol from plugin)
                                                  ./build/obj/rt_test_sequence_006.o (symbol from plugin)
                                                  ./build/obj/rt_test_sequence_005.o (symbol from plugin)
                                                  ./build/obj/rt_test_sequence_004.o (symbol from plugin)
                                                  ./build/obj/rt_test_sequence_003.o (symbol from plugin)
                                                  ./build/obj/rt_test_sequence_002.o (symbol from plugin)
                                                  ./build/obj/rt_test_sequence_001.o (symbol from plugin)
                                                  ./build/obj/ch_test_printf.o (symbol from plugin)
chthreads.c.24a01076                              /tmp/ccuA8I78.debug.temp.o
                                                  /tmp/ch.elf.PrlmSi.ltrans1.ltrans.o
                                                  /tmp/ch.elf.PrlmSi.ltrans0.ltrans.o
chtm.c.600ed623                                   /tmp/cc83udby.debug.temp.o
                                                  /tmp/ch.elf.PrlmSi.ltrans1.ltrans.o
                                                  /tmp/ch.elf.PrlmSi.ltrans0.ltrans.o
chtrace.c.4009259a                                /tmp/ccf5FW4G.debug.temp.o
chvprintf                                         ./build/obj/chprintf.o (symbol from plugin)
chvscanf                                          ./build/obj/chscanf.o (symbol from plugin)
chvsnprintf                                       ./build/obj/chprintf.o (symbol from plugin)
chvsnscanf                                        ./build/obj/chscanf.o (symbol from plugin)
chvt.c.347267f2                                   /tmp/cclWVjTc.debug.temp.o
                                                  /tmp/ch.elf.PrlmSi.ltrans1.ltrans.o
                                                  /tmp/ch.elf.PrlmSi.ltrans0.ltrans.o
crt1.c.08790120                                   /tmp/ccT7arii.debug.temp.o
                                                  /tmp/ch.elf.PrlmSi.ltrans0.ltrans.o
default_heap.lto_priv.0                           /tmp/ch.elf.PrlmSi.ltrans0.ltrans.o
                                                  /tmp/ch.elf.PrlmSi.ltrans1.ltrans.o
disk_initialize                                   ./build/obj/fatfs_diskio.o (symbol from plugin)
                                                  ./build/obj/ff.o (symbol from plugin)
disk_ioctl                                        ./build/obj/fatfs_diskio.o (symbol from plugin)
                                                  ./build/obj/ff.o (symbol from plugin)
disk_read                                         ./build/obj/fatfs_diskio.o (symbol from plugin)
                                                  ./build/obj/ff.o (symbol from plugin)
disk_status                                       ./build/obj/fatfs_diskio.o (symbol from plugin)
                                                  ./build/obj/ff.o (symbol from plugin)
disk_write                                        ./build/obj/fatfs_diskio.o (symbol from plugin)
                                                  ./build/obj/ff.o (symbol from plugin)
dma.lto_priv.0                                    /tmp/ch.elf.PrlmSi.ltrans0.ltrans.o
                                                  /tmp/ch.elf.PrlmSi.ltrans1.ltrans.o
dmaInit                                           ./build/obj/stm32_dma.o (symbol from plugin)
                                                  ./build/obj/hal_lld.o (symbol from plugin)
dmaServeInterrupt                                 ./build/obj/stm32_dma.o (symbol from plugin)
dmaStreamAlloc                                    ./build/obj/stm32_dma.o (symbol from plugin)
dmaStreamAllocI                                   ./build/obj/stm32_dma.o (symbol from plugin)
                                                  ./build/obj/hal_sdc_lld.o (symbol from plugin)
dmaStreamFree                                     ./build/obj/stm32_dma.o (symbol from plugin)
dmaStreamFreeI                                    ./build/obj/stm32_dma.o (symbol from plugin)
                                                  ./build/obj/hal_sdc_lld.o (symbol from plugin)
dyn_create_object_heap.lto_priv.0                 /tmp/ch.elf.PrlmSi.ltrans0.ltrans.o
                                                  /tmp/ch.elf.PrlmSi.ltrans1.ltrans.o
dyn_thread1.lto_priv.0                            /tmp/ch.elf.PrlmSi.ltrans0.ltrans.o
                                                  /tmp/ch.elf.PrlmSi.ltrans1.ltrans.o
ep0_state.lto_priv.0                              /tmp/ch.elf.PrlmSi.ltrans0.ltrans.o
ep0config.lto_priv.0                              /tmp/ch.elf.PrlmSi.ltrans0.ltrans.o
                                                  /tmp/ch.elf.PrlmSi.ltrans1.ltrans.o
ep0setup_buffer.lto_priv.0                        /tmp/ch.elf.PrlmSi.ltrans0.ltrans.o
f_close                                           ./build/obj/ff.o (symbol from plugin)
f_closedir                                        ./build/obj/ff.o (symbol from plugin)
f_getfree                                         ./build/obj/ff.o (symbol from plugin)
                                                  ./build/obj/main.o (symbol from plugin)
f_lseek                                           ./build/obj/ff.o (symbol from plugin)
f_mkdir                                           ./build/obj/ff.o (symbol from plugin)
f_mount                                           ./build/obj/ff.o (symbol from plugin)
                                                  ./build/obj/main.o (symbol from plugin)
f_open                                            ./build/obj/ff.o (symbol from plugin)
f_opendir                                         ./build/obj/ff.o (symbol from plugin)
                                                  ./build/obj/main.o (symbol from plugin)
f_read                                            ./build/obj/ff.o (symbol from plugin)
f_readdir                                         ./build/obj/ff.o (symbol from plugin)
                                                  ./build/obj/main.o (symbol from plugin)
f_rename                                          ./build/obj/ff.o (symbol from plugin)
f_stat                                            ./build/obj/ff.o (symbol from plugin)
f_sync                                            ./build/obj/ff.o (symbol from plugin)
f_truncate                                        ./build/obj/ff.o (symbol from plugin)
f_unlink                                          ./build/obj/ff.o (symbol from plugin)
f_write                                           ./build/obj/ff.o (symbol from plugin)
fatfs_diskio.c.10146b75                           /tmp/ccLQr75t.debug.temp.o
                                                  /tmp/ch.elf.PrlmSi.ltrans1.ltrans.o
                                                  /tmp/ch.elf.PrlmSi.ltrans0.ltrans.o
fatfs_syscall.c.e951e0fa                          /tmp/cco7DiDy.debug.temp.o
                                                  /tmp/ch.elf.PrlmSi.ltrans1.ltrans.o
ff.c.68f7fee2                                     /tmp/ccrmSd52.debug.temp.o
                                                  /tmp/ch.elf.PrlmSi.ltrans1.ltrans.o
                                                  /tmp/ch.elf.PrlmSi.ltrans0.ltrans.o
ff_memalloc                                       ./build/obj/fatfs_syscall.o (symbol from plugin)
                                                  ./build/obj/ff.o (symbol from plugin)
ff_memfree                                        ./build/obj/fatfs_syscall.o (symbol from plugin)
                                                  ./build/obj/ff.o (symbol from plugin)
ff_oem2uni                                        ./build/obj/ffunicode.o (symbol from plugin)
                                                  ./build/obj/ff.o (symbol from plugin)
ff_uni2oem                                        ./build/obj/ffunicode.o (symbol from plugin)
                                                  ./build/obj/ff.o (symbol from plugin)
ff_wtoupper                                       ./build/obj/ffunicode.o (symbol from plugin)
                                                  ./build/obj/ff.o (symbol from plugin)
ff_wtoupper.part.0                                /tmp/ch.elf.PrlmSi.ltrans0.ltrans.o
                                                  /tmp/ch.elf.PrlmSi.ltrans1.ltrans.o
ffunicode.c.c617b10a                              /tmp/cckD8sv3.debug.temp.o
                                                  /tmp/ch.elf.PrlmSi.ltrans1.ltrans.o
                                                  /tmp/ch.elf.PrlmSi.ltrans0.ltrans.o
flashGetAddressOffset                             ./build/obj/hal_flash.o (symbol from plugin)
flashGetOffsetAddress                             ./build/obj/hal_flash.o (symbol from plugin)
flashGetOffsetSector                              ./build/obj/hal_flash.o (symbol from plugin)
flashGetSectorOffset                              ./build/obj/hal_flash.o (symbol from plugin)
flashGetSectorSize                                ./build/obj/hal_flash.o (symbol from plugin)
flashWaitErase                                    ./build/obj/hal_flash.o (symbol from plugin)
get_descriptor.lto_priv.0                         /tmp/ch.elf.PrlmSi.ltrans0.ltrans.o
                                                  /tmp/ch.elf.PrlmSi.ltrans1.ltrans.o
get_fat.lto_priv.0                                /tmp/ch.elf.PrlmSi.ltrans0.ltrans.o
                                                  /tmp/ch.elf.PrlmSi.ltrans1.ltrans.o
get_fattime                                       ./build/obj/fatfs_diskio.o (symbol from plugin)
                                                  ./build/obj/ff.o (symbol from plugin)
get_ldnumber.lto_priv.0                           /tmp/ch.elf.PrlmSi.ltrans0.ltrans.o
                                                  /tmp/ch.elf.PrlmSi.ltrans1.ltrans.o
hal.c.7c5abb53                                    /tmp/cc7Dx78F.debug.temp.o
                                                  /tmp/ch.elf.PrlmSi.ltrans1.ltrans.o
halInit                                           ./build/obj/hal.o (symbol from plugin)
                                                  ./build/obj/main.o (symbol from plugin)
hal_buffered_serial.c.f52f8716                    /tmp/ccZ7qY8O.debug.temp.o
hal_buffers.c.bab71f21                            /tmp/ccKSzdhF.debug.temp.o
                                                  /tmp/ch.elf.PrlmSi.ltrans1.ltrans.o
                                                  /tmp/ch.elf.PrlmSi.ltrans0.ltrans.o
hal_efl_lld.c.a5aac565                            /tmp/cc1PZFGO.debug.temp.o
hal_flash.c.52e90cba                              /tmp/ccdRYPTw.debug.temp.o
hal_lld.c.98787996                                /tmp/cceljwdK.debug.temp.o
                                                  /tmp/ch.elf.PrlmSi.ltrans1.ltrans.o
                                                  /tmp/ch.elf.PrlmSi.ltrans0.ltrans.o
hal_lld_init                                      ./build/obj/hal_lld.o (symbol from plugin)
                                                  ./build/obj/hal.o (symbol from plugin)
hal_mmcsd.c.a3e5516a                              /tmp/ccRslxbw.debug.temp.o
                                                  /tmp/ch.elf.PrlmSi.ltrans0.ltrans.o
hal_pal.c.c771ff4d                                /tmp/ccq03z3c.debug.temp.o
hal_pal_lld.c.8a78d511                            /tmp/ccqovuRI.debug.temp.o
                                                  /tmp/ch.elf.PrlmSi.ltrans1.ltrans.o
hal_queues.c.4dd9815e                             /tmp/cc2SA22a.debug.temp.o
hal_sdc.c.47bc0c49                                /tmp/ccvhYQeJ.debug.temp.o
                                                  /tmp/ch.elf.PrlmSi.ltrans1.ltrans.o
                                                  /tmp/ch.elf.PrlmSi.ltrans0.ltrans.o
hal_sdc_lld.c.0ae3cb95                            /tmp/cczzinZ8.debug.temp.o
                                                  /tmp/ch.elf.PrlmSi.ltrans1.ltrans.o
                                                  /tmp/ch.elf.PrlmSi.ltrans0.ltrans.o
hal_serial_usb.c.eea62b08                         /tmp/ccQl7Knk.debug.temp.o
                                                  /tmp/ch.elf.PrlmSi.ltrans1.ltrans.o
                                                  /tmp/ch.elf.PrlmSi.ltrans0.ltrans.o
hal_st.c.8f058c89                                 /tmp/ccpCv5ZY.debug.temp.o
                                                  /tmp/ch.elf.PrlmSi.ltrans1.ltrans.o
                                                  /tmp/ch.elf.PrlmSi.ltrans0.ltrans.o
hal_st_lld.c.08ef28af                             /tmp/ccDI0WpU.debug.temp.o
                                                  /tmp/ch.elf.PrlmSi.ltrans1.ltrans.o
                                                  /tmp/ch.elf.PrlmSi.ltrans0.ltrans.o
hal_usb.c.a34b62fa                                /tmp/ccWtP7U3.debug.temp.o
                                                  /tmp/ch.elf.PrlmSi.ltrans1.ltrans.o
                                                  /tmp/ch.elf.PrlmSi.ltrans0.ltrans.o
hal_usb_lld.c.b3240b9b                            /tmp/ccaaNRgh.debug.temp.o
                                                  /tmp/ch.elf.PrlmSi.ltrans1.ltrans.o
                                                  /tmp/ch.elf.PrlmSi.ltrans0.ltrans.o
ibnotify.lto_priv.0                               /tmp/ch.elf.PrlmSi.ltrans0.ltrans.o
                                                  /tmp/ch.elf.PrlmSi.ltrans1.ltrans.o
ibqGetEmptyBufferI                                ./build/obj/hal_buffers.o (symbol from plugin)
                                                  ./build/obj/hal_serial_usb.o (symbol from plugin)
ibqGetFullBufferTimeout                           ./build/obj/hal_buffers.o (symbol from plugin)
ibqGetFullBufferTimeoutS                          ./build/obj/hal_buffers.o (symbol from plugin)
ibqGetTimeout                                     ./build/obj/hal_buffers.o (symbol from plugin)
                                                  ./build/obj/hal_serial_usb.o (symbol from plugin)
ibqObjectInit                                     ./build/obj/hal_buffers.o (symbol from plugin)
                                                  ./build/obj/hal_serial_usb.o (symbol from plugin)
ibqPostFullBufferI                                ./build/obj/hal_buffers.o (symbol from plugin)
                                                  ./build/obj/hal_serial_usb.o (symbol from plugin)
ibqReadTimeout                                    ./build/obj/hal_buffers.o (symbol from plugin)
                                                  ./build/obj/hal_serial_usb.o (symbol from plugin)
ibqReleaseEmptyBuffer                             ./build/obj/hal_buffers.o (symbol from plugin)
ibqReleaseEmptyBufferS                            ./build/obj/hal_buffers.o (symbol from plugin)
ibqResetI                                         ./build/obj/hal_buffers.o (symbol from plugin)
                                                  ./build/obj/hal_serial_usb.o (symbol from plugin)
iqGetI                                            ./build/obj/hal_queues.o (symbol from plugin)
iqGetTimeout                                      ./build/obj/hal_queues.o (symbol from plugin)
iqObjectInit                                      ./build/obj/hal_queues.o (symbol from plugin)
iqPutI                                            ./build/obj/hal_queues.o (symbol from plugin)
                                                  ./build/obj/hal_buffered_serial.o (symbol from plugin)
iqReadI                                           ./build/obj/hal_queues.o (symbol from plugin)
iqReadTimeout                                     ./build/obj/hal_queues.o (symbol from plugin)
iqResetI                                          ./build/obj/hal_queues.o (symbol from plugin)
irqDeinit                                         ./build/obj/stm32_isr.o (symbol from plugin)
irqInit                                           ./build/obj/stm32_isr.o (symbol from plugin)
                                                  ./build/obj/hal_lld.o (symbol from plugin)
main                                              /tmp/ch.elf.PrlmSi.ltrans1.ltrans.o
                                                  ./build/obj/main.o (symbol from plugin)
                                                  ./build/obj/crt0_v7m.o
main.c.da3cbb5c                                   /tmp/cchujncb.debug.temp.o
                                                  /tmp/ch.elf.PrlmSi.ltrans1.ltrans.o
memcmp                                            /usr/lib/gcc/arm-none-eabi/10.3.1/../../../arm-none-eabi/lib/thumb/v7-m/nofp/libg.a(lib_a-memcmp.o)
                                                  /tmp/ch.elf.PrlmSi.ltrans1.ltrans.o
                                                  /tmp/ch.elf.PrlmSi.ltrans0.ltrans.o
memcpy                                            /usr/lib/gcc/arm-none-eabi/10.3.1/../../../arm-none-eabi/lib/thumb/v7-m/nofp/libg.a(lib_a-memcpy.o)
                                                  /tmp/ch.elf.PrlmSi.ltrans1.ltrans.o
                                                  /tmp/ch.elf.PrlmSi.ltrans0.ltrans.o
memset                                            /usr/lib/gcc/arm-none-eabi/10.3.1/../../../arm-none-eabi/lib/thumb/v7-m/nofp/libg.a(lib_a-memset.o)
                                                  /tmp/ch.elf.PrlmSi.ltrans1.ltrans.o
                                                  /tmp/ch.elf.PrlmSi.ltrans0.ltrans.o
memstreams.c.bddb5f2c                             /tmp/cczgHpWX.debug.temp.o
move_window.part.0.lto_priv.0                     /tmp/ch.elf.PrlmSi.ltrans0.ltrans.o
                                                  /tmp/ch.elf.PrlmSi.ltrans1.ltrans.o
mp1.lto_priv.0                                    /tmp/ch.elf.PrlmSi.ltrans0.ltrans.o
                                                  /tmp/ch.elf.PrlmSi.ltrans1.ltrans.o
msObjectInit                                      ./build/obj/memstreams.o (symbol from plugin)
                                                  ./build/obj/chscanf.o (symbol from plugin)
                                                  ./build/obj/chprintf.o (symbol from plugin)
nullObjectInit                                    ./build/obj/nullstreams.o (symbol from plugin)
nullstreams.c.8b8684cf                            /tmp/cccyEIBw.debug.temp.o
nvic.c.d1c4cbac                                   /tmp/cchT0WqU.debug.temp.o
                                                  /tmp/ch.elf.PrlmSi.ltrans1.ltrans.o
nvicClearPending                                  ./build/obj/nvic.o (symbol from plugin)
nvicDisableVector                                 ./build/obj/nvic.o (symbol from plugin)
                                                  ./build/obj/hal_usb_lld.o (symbol from plugin)
                                                  ./build/obj/stm32_dma.o (symbol from plugin)
                                                  ./build/obj/stm32_isr.o (symbol from plugin)
nvicEnableVector                                  ./build/obj/nvic.o (symbol from plugin)
                                                  ./build/obj/hal_usb_lld.o (symbol from plugin)
                                                  ./build/obj/hal_st_lld.o (symbol from plugin)
                                                  ./build/obj/hal_sdc_lld.o (symbol from plugin)
                                                  ./build/obj/stm32_dma.o (symbol from plugin)
                                                  ./build/obj/stm32_isr.o (symbol from plugin)
nvicInit                                          ./build/obj/nvic.o (symbol from plugin)
nvicSetPending                                    ./build/obj/nvic.o (symbol from plugin)
nvicSetSystemHandlerPriority                      ./build/obj/nvic.o (symbol from plugin)
obnotify.lto_priv.0                               /tmp/ch.elf.PrlmSi.ltrans0.ltrans.o
                                                  /tmp/ch.elf.PrlmSi.ltrans1.ltrans.o
obqFlush                                          ./build/obj/hal_buffers.o (symbol from plugin)
obqGetEmptyBufferTimeout                          ./build/obj/hal_buffers.o (symbol from plugin)
obqGetEmptyBufferTimeoutS                         ./build/obj/hal_buffers.o (symbol from plugin)
obqGetFullBufferI                                 ./build/obj/hal_buffers.o (symbol from plugin)
                                                  ./build/obj/hal_serial_usb.o (symbol from plugin)
obqObjectInit                                     ./build/obj/hal_buffers.o (symbol from plugin)
                                                  ./build/obj/hal_serial_usb.o (symbol from plugin)
obqPostFullBuffer                                 ./build/obj/hal_buffers.o (symbol from plugin)
obqPostFullBufferS                                ./build/obj/hal_buffers.o (symbol from plugin)
obqPutTimeout                                     ./build/obj/hal_buffers.o (symbol from plugin)
                                                  ./build/obj/hal_serial_usb.o (symbol from plugin)
obqReleaseEmptyBufferI                            ./build/obj/hal_buffers.o (symbol from plugin)
                                                  ./build/obj/hal_serial_usb.o (symbol from plugin)
obqResetI                                         ./build/obj/hal_buffers.o (symbol from plugin)
                                                  ./build/obj/hal_serial_usb.o (symbol from plugin)
obqTryFlushI                                      ./build/obj/hal_buffers.o (symbol from plugin)
                                                  ./build/obj/hal_serial_usb.o (symbol from plugin)
obqWriteTimeout                                   ./build/obj/hal_buffers.o (symbol from plugin)
                                                  ./build/obj/hal_serial_usb.o (symbol from plugin)
oqGetI                                            ./build/obj/hal_queues.o (symbol from plugin)
                                                  ./build/obj/hal_buffered_serial.o (symbol from plugin)
oqObjectInit                                      ./build/obj/hal_queues.o (symbol from plugin)
oqPutI                                            ./build/obj/hal_queues.o (symbol from plugin)
oqPutTimeout                                      ./build/obj/hal_queues.o (symbol from plugin)
oqResetI                                          ./build/obj/hal_queues.o (symbol from plugin)
oqWriteI                                          ./build/obj/hal_queues.o (symbol from plugin)
oqWriteTimeout                                    ./build/obj/hal_queues.o (symbol from plugin)
osal.c.1de1a99c                                   /tmp/ccrSKEYo.debug.temp.o
oslib_test_001_001_execute.lto_priv.0             /tmp/ch.elf.PrlmSi.ltrans1.ltrans.o
                                                  /tmp/ch.elf.PrlmSi.ltrans0.ltrans.o
oslib_test_001_002_execute.lto_priv.0             /tmp/ch.elf.PrlmSi.ltrans1.ltrans.o
                                                  /tmp/ch.elf.PrlmSi.ltrans0.ltrans.o
oslib_test_001_003_execute.lto_priv.0             /tmp/ch.elf.PrlmSi.ltrans1.ltrans.o
                                                  /tmp/ch.elf.PrlmSi.ltrans0.ltrans.o
oslib_test_002_001_execute.lto_priv.0             /tmp/ch.elf.PrlmSi.ltrans1.ltrans.o
                                                  /tmp/ch.elf.PrlmSi.ltrans0.ltrans.o
oslib_test_002_001_setup.lto_priv.0               /tmp/ch.elf.PrlmSi.ltrans1.ltrans.o
                                                  /tmp/ch.elf.PrlmSi.ltrans0.ltrans.o
oslib_test_002_001_teardown.lto_priv.0            /tmp/ch.elf.PrlmSi.ltrans1.ltrans.o
                                                  /tmp/ch.elf.PrlmSi.ltrans0.ltrans.o
oslib_test_002_002_execute.lto_priv.0             /tmp/ch.elf.PrlmSi.ltrans1.ltrans.o
                                                  /tmp/ch.elf.PrlmSi.ltrans0.ltrans.o
oslib_test_002_002_setup.lto_priv.0               /tmp/ch.elf.PrlmSi.ltrans1.ltrans.o
                                                  /tmp/ch.elf.PrlmSi.ltrans0.ltrans.o
oslib_test_002_002_teardown.lto_priv.0            /tmp/ch.elf.PrlmSi.ltrans1.ltrans.o
                                                  /tmp/ch.elf.PrlmSi.ltrans0.ltrans.o
oslib_test_002_003_execute.lto_priv.0             /tmp/ch.elf.PrlmSi.ltrans1.ltrans.o
                                                  /tmp/ch.elf.PrlmSi.ltrans0.ltrans.o
oslib_test_002_003_setup.lto_priv.0               /tmp/ch.elf.PrlmSi.ltrans1.ltrans.o
                                                  /tmp/ch.elf.PrlmSi.ltrans0.ltrans.o
oslib_test_002_003_teardown.lto_priv.0            /tmp/ch.elf.PrlmSi.ltrans1.ltrans.o
                                                  /tmp/ch.elf.PrlmSi.ltrans0.ltrans.o
oslib_test_003_001_execute.lto_priv.0             /tmp/ch.elf.PrlmSi.ltrans1.ltrans.o
                                                  /tmp/ch.elf.PrlmSi.ltrans0.ltrans.o
oslib_test_003_001_setup.lto_priv.0               /tmp/ch.elf.PrlmSi.ltrans1.ltrans.o
                                                  /tmp/ch.elf.PrlmSi.ltrans0.ltrans.o
oslib_test_003_002_execute.lto_priv.0             /tmp/ch.elf.PrlmSi.ltrans1.ltrans.o
                                                  /tmp/ch.elf.PrlmSi.ltrans0.ltrans.o
oslib_test_003_002_setup.lto_priv.0               /tmp/ch.elf.PrlmSi.ltrans1.ltrans.o
                                                  /tmp/ch.elf.PrlmSi.ltrans0.ltrans.o
oslib_test_004_001_execute.lto_priv.0             /tmp/ch.elf.PrlmSi.ltrans1.ltrans.o
                                                  /tmp/ch.elf.PrlmSi.ltrans0.ltrans.o
oslib_test_005_001_execute.lto_priv.0             /tmp/ch.elf.PrlmSi.ltrans1.ltrans.o
                                                  /tmp/ch.elf.PrlmSi.ltrans0.ltrans.o
oslib_test_006_001_execute.lto_priv.0             /tmp/ch.elf.PrlmSi.ltrans1.ltrans.o
                                                  /tmp/ch.elf.PrlmSi.ltrans0.ltrans.o
oslib_test_007_001_execute.lto_priv.0             /tmp/ch.elf.PrlmSi.ltrans1.ltrans.o
                                                  /tmp/ch.elf.PrlmSi.ltrans0.ltrans.o
oslib_test_007_001_setup.lto_priv.0               /tmp/ch.elf.PrlmSi.ltrans1.ltrans.o
                                                  /tmp/ch.elf.PrlmSi.ltrans0.ltrans.o
oslib_test_007_002_execute.lto_priv.0             /tmp/ch.elf.PrlmSi.ltrans1.ltrans.o
                                                  /tmp/ch.elf.PrlmSi.ltrans0.ltrans.o
oslib_test_007_002_setup.lto_priv.0               /tmp/ch.elf.PrlmSi.ltrans1.ltrans.o
                                                  /tmp/ch.elf.PrlmSi.ltrans0.ltrans.o
oslib_test_007_003_execute.lto_priv.0             /tmp/ch.elf.PrlmSi.ltrans1.ltrans.o
                                                  /tmp/ch.elf.PrlmSi.ltrans0.ltrans.o
oslib_test_007_003_setup.lto_priv.0               /tmp/ch.elf.PrlmSi.ltrans1.ltrans.o
                                                  /tmp/ch.elf.PrlmSi.ltrans0.ltrans.o
oslib_test_008_001_execute.lto_priv.0             /tmp/ch.elf.PrlmSi.ltrans1.ltrans.o
                                                  /tmp/ch.elf.PrlmSi.ltrans0.ltrans.o
oslib_test_008_001_setup.lto_priv.0               /tmp/ch.elf.PrlmSi.ltrans1.ltrans.o
                                                  /tmp/ch.elf.PrlmSi.ltrans0.ltrans.o
oslib_test_008_002_execute.lto_priv.0             /tmp/ch.elf.PrlmSi.ltrans1.ltrans.o
                                                  /tmp/ch.elf.PrlmSi.ltrans0.ltrans.o
oslib_test_009_001_execute.lto_priv.0             /tmp/ch.elf.PrlmSi.ltrans1.ltrans.o
                                                  /tmp/ch.elf.PrlmSi.ltrans0.ltrans.o
oslib_test_009_001_teardown.lto_priv.0            /tmp/ch.elf.PrlmSi.ltrans1.ltrans.o
                                                  /tmp/ch.elf.PrlmSi.ltrans0.ltrans.o
oslib_test_009_002_execute.lto_priv.0             /tmp/ch.elf.PrlmSi.ltrans1.ltrans.o
                                                  /tmp/ch.elf.PrlmSi.ltrans0.ltrans.o
oslib_test_009_002_teardown.lto_priv.0            /tmp/ch.elf.PrlmSi.ltrans1.ltrans.o
                                                  /tmp/ch.elf.PrlmSi.ltrans0.ltrans.o
oslib_test_009_003_execute.lto_priv.0             /tmp/ch.elf.PrlmSi.ltrans1.ltrans.o
                                                  /tmp/ch.elf.PrlmSi.ltrans0.ltrans.o
oslib_test_009_003_teardown.lto_priv.0            /tmp/ch.elf.PrlmSi.ltrans1.ltrans.o
                                                  /tmp/ch.elf.PrlmSi.ltrans0.ltrans.o
oslib_test_009_004_execute.lto_priv.0             /tmp/ch.elf.PrlmSi.ltrans1.ltrans.o
                                                  /tmp/ch.elf.PrlmSi.ltrans0.ltrans.o
oslib_test_009_004_teardown.lto_priv.0            /tmp/ch.elf.PrlmSi.ltrans1.ltrans.o
                                                  /tmp/ch.elf.PrlmSi.ltrans0.ltrans.o
oslib_test_009_005_execute.lto_priv.0             /tmp/ch.elf.PrlmSi.ltrans1.ltrans.o
                                                  /tmp/ch.elf.PrlmSi.ltrans0.ltrans.o
oslib_test_009_005_teardown.lto_priv.0            /tmp/ch.elf.PrlmSi.ltrans1.ltrans.o
                                                  /tmp/ch.elf.PrlmSi.ltrans0.ltrans.o
oslib_test_009_006_execute.lto_priv.0             /tmp/ch.elf.PrlmSi.ltrans1.ltrans.o
                                                  /tmp/ch.elf.PrlmSi.ltrans0.ltrans.o
oslib_test_009_006_teardown.lto_priv.0            /tmp/ch.elf.PrlmSi.ltrans1.ltrans.o
                                                  /tmp/ch.elf.PrlmSi.ltrans0.ltrans.o
oslib_test_root.c.6198a6c7                        /tmp/ccnJMe5U.debug.temp.o
                                                  /tmp/ch.elf.PrlmSi.ltrans0.ltrans.o
oslib_test_sequence_001                           ./build/obj/oslib_test_sequence_001.o (symbol from plugin)
                                                  ./build/obj/oslib_test_root.o (symbol from plugin)
oslib_test_sequence_001.c.fbe74505                /tmp/ccPT081o.debug.temp.o
                                                  /tmp/ch.elf.PrlmSi.ltrans1.ltrans.o
                                                  /tmp/ch.elf.PrlmSi.ltrans0.ltrans.o
oslib_test_sequence_001_array                     ./build/obj/oslib_test_sequence_001.o (symbol from plugin)
oslib_test_sequence_002                           ./build/obj/oslib_test_sequence_002.o (symbol from plugin)
                                                  ./build/obj/oslib_test_root.o (symbol from plugin)
oslib_test_sequence_002.c.2ab16b9b                /tmp/cc5jkqLx.debug.temp.o
                                                  /tmp/ch.elf.PrlmSi.ltrans1.ltrans.o
                                                  /tmp/ch.elf.PrlmSi.ltrans0.ltrans.o
oslib_test_sequence_002_array                     ./build/obj/oslib_test_sequence_002.o (symbol from plugin)
oslib_test_sequence_003                           ./build/obj/oslib_test_sequence_003.o (symbol from plugin)
                                                  ./build/obj/oslib_test_root.o (symbol from plugin)
oslib_test_sequence_003.c.19f4e4bc                /tmp/ccJDBeky.debug.temp.o
                                                  /tmp/ch.elf.PrlmSi.ltrans1.ltrans.o
                                                  /tmp/ch.elf.PrlmSi.ltrans0.ltrans.o
oslib_test_sequence_003_array                     ./build/obj/oslib_test_sequence_003.o (symbol from plugin)
oslib_test_sequence_004                           ./build/obj/oslib_test_sequence_004.o (symbol from plugin)
                                                  ./build/obj/oslib_test_root.o (symbol from plugin)
oslib_test_sequence_004.c.d84c6135                /tmp/ccMW8lyt.debug.temp.o
                                                  /tmp/ch.elf.PrlmSi.ltrans1.ltrans.o
                                                  /tmp/ch.elf.PrlmSi.ltrans0.ltrans.o
oslib_test_sequence_004_array                     ./build/obj/oslib_test_sequence_004.o (symbol from plugin)
oslib_test_sequence_005                           ./build/obj/oslib_test_sequence_005.o (symbol from plugin)
                                                  ./build/obj/oslib_test_root.o (symbol from plugin)
oslib_test_sequence_005.c.0a7b40c7                /tmp/ccZHfhgS.debug.temp.o
                                                  /tmp/ch.elf.PrlmSi.ltrans1.ltrans.o
                                                  /tmp/ch.elf.PrlmSi.ltrans0.ltrans.o
oslib_test_sequence_005_array                     ./build/obj/oslib_test_sequence_005.o (symbol from plugin)
oslib_test_sequence_006                           ./build/obj/oslib_test_sequence_006.o (symbol from plugin)
                                                  ./build/obj/oslib_test_root.o (symbol from plugin)
oslib_test_sequence_006.c.baffe27a                /tmp/ccSwjcvb.debug.temp.o
                                                  /tmp/ch.elf.PrlmSi.ltrans1.ltrans.o
                                                  /tmp/ch.elf.PrlmSi.ltrans0.ltrans.o
oslib_test_sequence_006_array                     ./build/obj/oslib_test_sequence_006.o (symbol from plugin)
oslib_test_sequence_007                           ./build/obj/oslib_test_sequence_007.o (symbol from plugin)
                                                  ./build/obj/oslib_test_root.o (symbol from plugin)
oslib_test_sequence_007.c.a7f4bf2e                /tmp/ccNSyn7G.debug.temp.o
                                                  /tmp/ch.elf.PrlmSi.ltrans1.ltrans.o
                                                  /tmp/ch.elf.PrlmSi.ltrans0.ltrans.o
oslib_test_sequence_007_array                     ./build/obj/oslib_test_sequence_007.o (symbol from plugin)
oslib_test_sequence_008                           ./build/obj/oslib_test_sequence_008.o (symbol from plugin)
                                                  ./build/obj/oslib_test_root.o (symbol from plugin)
oslib_test_sequence_008.c.9108856c                /tmp/ccjzDEYI.debug.temp.o
                                                  /tmp/ch.elf.PrlmSi.ltrans1.ltrans.o
                                                  /tmp/ch.elf.PrlmSi.ltrans0.ltrans.o
oslib_test_sequence_008_array                     ./build/obj/oslib_test_sequence_008.o (symbol from plugin)
oslib_test_sequence_009                           ./build/obj/oslib_test_sequence_009.o (symbol from plugin)
                                                  ./build/obj/oslib_test_root.o (symbol from plugin)
oslib_test_sequence_009.c.ff8a1c9c                /tmp/ccOZAkil.debug.temp.o
                                                  /tmp/ch.elf.PrlmSi.ltrans1.ltrans.o
                                                  /tmp/ch.elf.PrlmSi.ltrans0.ltrans.o
oslib_test_sequence_009_array                     ./build/obj/oslib_test_sequence_009.o (symbol from plugin)
oslib_test_suite                                  ./build/obj/oslib_test_root.o (symbol from plugin)
                                                  ./build/obj/shell_cmd.o (symbol from plugin)
oslib_test_suite_array                            ./build/obj/oslib_test_root.o (symbol from plugin)
palReadBus                                        ./build/obj/hal_pal.o (symbol from plugin)
palSetBusMode                                     ./build/obj/hal_pal.o (symbol from plugin)
palWriteBus                                       ./build/obj/hal_pal.o (symbol from plugin)
pal_default_config                                ./build/obj/board.o (symbol from plugin)
                                                  ./build/obj/hal.o (symbol from plugin)
port_init                                         ./build/obj/chcore.o (symbol from plugin)
                                                  ./build/obj/chinstances.o (symbol from plugin)
put_utf.lto_priv.0                                /tmp/ch.elf.PrlmSi.ltrans0.ltrans.o
                                                  /tmp/ch.elf.PrlmSi.ltrans1.ltrans.o
rt_test_001_001_execute.lto_priv.0                /tmp/ch.elf.PrlmSi.ltrans0.ltrans.o
                                                  /tmp/ch.elf.PrlmSi.ltrans1.ltrans.o
rt_test_012_004_execute.lto_priv.0                /tmp/ch.elf.PrlmSi.ltrans1.ltrans.o
                                                  /tmp/ch.elf.PrlmSi.ltrans0.ltrans.o
rt_test_012_005_execute.lto_priv.0                /tmp/ch.elf.PrlmSi.ltrans1.ltrans.o
                                                  /tmp/ch.elf.PrlmSi.ltrans0.ltrans.o
rt_test_012_006_execute.lto_priv.0                /tmp/ch.elf.PrlmSi.ltrans1.ltrans.o
                                                  /tmp/ch.elf.PrlmSi.ltrans0.ltrans.o
rt_test_012_007_execute.lto_priv.0                /tmp/ch.elf.PrlmSi.ltrans1.ltrans.o
                                                  /tmp/ch.elf.PrlmSi.ltrans0.ltrans.o
rt_test_012_007_setup.lto_priv.0                  /tmp/ch.elf.PrlmSi.ltrans1.ltrans.o
                                                  /tmp/ch.elf.PrlmSi.ltrans0.ltrans.o
rt_test_012_008_execute.lto_priv.0                /tmp/ch.elf.PrlmSi.ltrans1.ltrans.o
                                                  /tmp/ch.elf.PrlmSi.ltrans0.ltrans.o
rt_test_012_009_execute.lto_priv.0                /tmp/ch.elf.PrlmSi.ltrans1.ltrans.o
                                                  /tmp/ch.elf.PrlmSi.ltrans0.ltrans.o
rt_test_012_010_execute.lto_priv.0                /tmp/ch.elf.PrlmSi.ltrans1.ltrans.o
                                                  /tmp/ch.elf.PrlmSi.ltrans0.ltrans.o
rt_test_012_010_setup.lto_priv.0                  /tmp/ch.elf.PrlmSi.ltrans1.ltrans.o
                                                  /tmp/ch.elf.PrlmSi.ltrans0.ltrans.o
rt_test_012_011_execute.lto_priv.0                /tmp/ch.elf.PrlmSi.ltrans1.ltrans.o
                                                  /tmp/ch.elf.PrlmSi.ltrans0.ltrans.o
rt_test_012_011_setup.lto_priv.0                  /tmp/ch.elf.PrlmSi.ltrans1.ltrans.o
                                                  /tmp/ch.elf.PrlmSi.ltrans0.ltrans.o
rt_test_012_012_execute.lto_priv.0                /tmp/ch.elf.PrlmSi.ltrans1.ltrans.o
                                                  /tmp/ch.elf.PrlmSi.ltrans0.ltrans.o
rt_test_root.c.5c4dc21f                           /tmp/ccZVzhNQ.debug.temp.o
                                                  /tmp/ch.elf.PrlmSi.ltrans1.ltrans.o
                                                  /tmp/ch.elf.PrlmSi.ltrans0.ltrans.o
rt_test_sequence_001                              ./build/obj/rt_test_sequence_001.o (symbol from plugin)
                                                  ./build/obj/rt_test_root.o (symbol from plugin)
rt_test_sequence_001.c.f1e3790e                   /tmp/ccpaeRfq.debug.temp.o
                                                  /tmp/ch.elf.PrlmSi.ltrans0.ltrans.o
rt_test_sequence_001_array                        ./build/obj/rt_test_sequence_001.o (symbol from plugin)
rt_test_sequence_002                              ./build/obj/rt_test_sequence_002.o (symbol from plugin)
                                                  ./build/obj/rt_test_root.o (symbol from plugin)
rt_test_sequence_002.c.ee471fe6                   /tmp/cc6Ykh7P.debug.temp.o
                                                  /tmp/ch.elf.PrlmSi.ltrans1.ltrans.o
                                                  /tmp/ch.elf.PrlmSi.ltrans0.ltrans.o
rt_test_sequence_002_array                        ./build/obj/rt_test_sequence_002.o (symbol from plugin)
rt_test_sequence_003                              ./build/obj/rt_test_sequence_003.o (symbol from plugin)
                                                  ./build/obj/rt_test_root.o (symbol from plugin)
rt_test_sequence_003.c.38ac9e22                   /tmp/cc95wmnE.debug.temp.o
                                                  /tmp/ch.elf.PrlmSi.ltrans0.ltrans.o
rt_test_sequence_003_array                        ./build/obj/rt_test_sequence_003.o (symbol from plugin)
rt_test_sequence_004                              ./build/obj/rt_test_sequence_004.o (symbol from plugin)
                                                  ./build/obj/rt_test_root.o (symbol from plugin)
rt_test_sequence_004.c.5c644325                   /tmp/cc2TUhek.debug.temp.o
                                                  /tmp/ch.elf.PrlmSi.ltrans0.ltrans.o
rt_test_sequence_004_array                        ./build/obj/rt_test_sequence_004.o (symbol from plugin)
rt_test_sequence_005                              ./build/obj/rt_test_sequence_005.o (symbol from plugin)
                                                  ./build/obj/rt_test_root.o (symbol from plugin)
rt_test_sequence_005.c.85192de2                   /tmp/ccyC6ugg.debug.temp.o
                                                  /tmp/ch.elf.PrlmSi.ltrans0.ltrans.o
rt_test_sequence_005_array                        ./build/obj/rt_test_sequence_005.o (symbol from plugin)
rt_test_sequence_006                              ./build/obj/rt_test_sequence_006.o (symbol from plugin)
                                                  ./build/obj/rt_test_root.o (symbol from plugin)
rt_test_sequence_006.c.66ce5ef8                   /tmp/ccrWm1Fa.debug.temp.o
                                                  /tmp/ch.elf.PrlmSi.ltrans0.ltrans.o
rt_test_sequence_006_array                        ./build/obj/rt_test_sequence_006.o (symbol from plugin)
rt_test_sequence_007                              ./build/obj/rt_test_sequence_007.o (symbol from plugin)
                                                  ./build/obj/rt_test_root.o (symbol from plugin)
rt_test_sequence_007.c.84b7194f                   /tmp/cczbmG7z.debug.temp.o
                                                  /tmp/ch.elf.PrlmSi.ltrans0.ltrans.o
rt_test_sequence_007_array                        ./build/obj/rt_test_sequence_007.o (symbol from plugin)
rt_test_sequence_008                              ./build/obj/rt_test_sequence_008.o (symbol from plugin)
                                                  ./build/obj/rt_test_root.o (symbol from plugin)
rt_test_sequence_008.c.85a482e9                   /tmp/cc3JqDqz.debug.temp.o
                                                  /tmp/ch.elf.PrlmSi.ltrans0.ltrans.o
rt_test_sequence_008_array                        ./build/obj/rt_test_sequence_008.o (symbol from plugin)
rt_test_sequence_009                              ./build/obj/rt_test_sequence_009.o (symbol from plugin)
                                                  ./build/obj/rt_test_root.o (symbol from plugin)
rt_test_sequence_009.c.b5f34fe8                   /tmp/cc70tGEa.debug.temp.o
                                                  /tmp/ch.elf.PrlmSi.ltrans0.ltrans.o
rt_test_sequence_009_array                        ./build/obj/rt_test_sequence_009.o (symbol from plugin)
rt_test_sequence_010                              ./build/obj/rt_test_sequence_010.o (symbol from plugin)
                                                  ./build/obj/rt_test_root.o (symbol from plugin)
rt_test_sequence_010.c.c7df3bc6                   /tmp/ccBK22k5.debug.temp.o
                                                  /tmp/ch.elf.PrlmSi.ltrans0.ltrans.o
rt_test_sequence_010_array                        ./build/obj/rt_test_sequence_010.o (symbol from plugin)
rt_test_sequence_011                              ./build/obj/rt_test_sequence_011.o (symbol from plugin)
                                                  ./build/obj/rt_test_root.o (symbol from plugin)
rt_test_sequence_011.c.26f6bd73                   /tmp/ccYOR9Q0.debug.temp.o
                                                  /tmp/ch.elf.PrlmSi.ltrans0.ltrans.o
rt_test_sequence_011_array                        ./build/obj/rt_test_sequence_011.o (symbol from plugin)
rt_test_sequence_012                              ./build/obj/rt_test_sequence_012.o (symbol from plugin)
                                                  ./build/obj/rt_test_root.o (symbol from plugin)
rt_test_sequence_012.c.099c9cd6                   /tmp/cc1MHbQA.debug.temp.o
                                                  /tmp/ch.elf.PrlmSi.ltrans1.ltrans.o
                                                  /tmp/ch.elf.PrlmSi.ltrans0.ltrans.o
rt_test_sequence_012_array                        ./build/obj/rt_test_sequence_012.o (symbol from plugin)
rt_test_suite                                     ./build/obj/rt_test_root.o (symbol from plugin)
                                                  ./build/obj/shell_cmd.o (symbol from plugin)
rt_test_suite_array                               ./build/obj/rt_test_root.o (symbol from plugin)
sdcConnect                                        /tmp/ch.elf.PrlmSi.ltrans0.ltrans.o
                                                  ./build/obj/hal_sdc.o (symbol from plugin)
                                                  /tmp/ch.elf.PrlmSi.ltrans1.ltrans.o
                                                  ./build/obj/main.o (symbol from plugin)
sdcDisconnect                                     /tmp/ch.elf.PrlmSi.ltrans0.ltrans.o
                                                  ./build/obj/hal_sdc.o (symbol from plugin)
                                                  /tmp/ch.elf.PrlmSi.ltrans1.ltrans.o
                                                  ./build/obj/main.o (symbol from plugin)
sdcErase                                          ./build/obj/hal_sdc.o (symbol from plugin)
sdcGetAndClearErrors                              ./build/obj/hal_sdc.o (symbol from plugin)
sdcGetInfo                                        /tmp/ch.elf.PrlmSi.ltrans0.ltrans.o
                                                  ./build/obj/hal_sdc.o (symbol from plugin)
                                                  /tmp/ch.elf.PrlmSi.ltrans1.ltrans.o
sdcInit                                           ./build/obj/hal_sdc.o (symbol from plugin)
                                                  ./build/obj/hal.o (symbol from plugin)
sdcObjectInit                                     ./build/obj/hal_sdc.o (symbol from plugin)
                                                  ./build/obj/hal_sdc_lld.o (symbol from plugin)
sdcRead                                           /tmp/ch.elf.PrlmSi.ltrans0.ltrans.o
                                                  ./build/obj/hal_sdc.o (symbol from plugin)
                                                  /tmp/ch.elf.PrlmSi.ltrans1.ltrans.o
sdcStart                                          ./build/obj/hal_sdc.o (symbol from plugin)
                                                  ./build/obj/main.o (symbol from plugin)
sdcStop                                           ./build/obj/hal_sdc.o (symbol from plugin)
sdcSync                                           /tmp/ch.elf.PrlmSi.ltrans0.ltrans.o
                                                  ./build/obj/hal_sdc.o (symbol from plugin)
                                                  /tmp/ch.elf.PrlmSi.ltrans1.ltrans.o
sdcWrite                                          /tmp/ch.elf.PrlmSi.ltrans0.ltrans.o
                                                  ./build/obj/hal_sdc.o (symbol from plugin)
                                                  /tmp/ch.elf.PrlmSi.ltrans1.ltrans.o
sdc_lld_init                                      ./build/obj/hal_sdc_lld.o (symbol from plugin)
                                                  ./build/obj/hal_sdc.o (symbol from plugin)
sdc_lld_is_card_inserted                          /tmp/ch.elf.PrlmSi.ltrans0.ltrans.o
                                                  ./build/obj/board.o (symbol from plugin)
                                                  /tmp/ch.elf.PrlmSi.ltrans1.ltrans.o
                                                  ./build/obj/hal_sdc.o (symbol from plugin)
sdc_lld_is_write_protected                        /tmp/ch.elf.PrlmSi.ltrans0.ltrans.o
                                                  ./build/obj/board.o (symbol from plugin)
                                                  /tmp/ch.elf.PrlmSi.ltrans1.ltrans.o
                                                  ./build/obj/hal_sdc.o (symbol from plugin)
sdc_lld_read                                      ./build/obj/hal_sdc_lld.o (symbol from plugin)
                                                  ./build/obj/hal_sdc.o (symbol from plugin)
sdc_lld_read_aligned                              ./build/obj/hal_sdc_lld.o (symbol from plugin)
sdc_lld_read_special                              ./build/obj/hal_sdc_lld.o (symbol from plugin)
                                                  ./build/obj/hal_sdc.o (symbol from plugin)
sdc_lld_send_cmd_long_crc                         ./build/obj/hal_sdc_lld.o (symbol from plugin)
                                                  ./build/obj/hal_sdc.o (symbol from plugin)
sdc_lld_send_cmd_none                             ./build/obj/hal_sdc_lld.o (symbol from plugin)
                                                  ./build/obj/hal_sdc.o (symbol from plugin)
sdc_lld_send_cmd_short                            ./build/obj/hal_sdc_lld.o (symbol from plugin)
                                                  ./build/obj/hal_sdc.o (symbol from plugin)
sdc_lld_send_cmd_short_crc                        ./build/obj/hal_sdc_lld.o (symbol from plugin)
                                                  ./build/obj/hal_sdc.o (symbol from plugin)
sdc_lld_set_bus_mode                              ./build/obj/hal_sdc_lld.o (symbol from plugin)
                                                  ./build/obj/hal_sdc.o (symbol from plugin)
sdc_lld_set_data_clk                              ./build/obj/hal_sdc_lld.o (symbol from plugin)
                                                  ./build/obj/hal_sdc.o (symbol from plugin)
sdc_lld_start                                     ./build/obj/hal_sdc_lld.o (symbol from plugin)
                                                  ./build/obj/hal_sdc.o (symbol from plugin)
sdc_lld_start_clk                                 ./build/obj/hal_sdc_lld.o (symbol from plugin)
                                                  ./build/obj/hal_sdc.o (symbol from plugin)
sdc_lld_stop                                      ./build/obj/hal_sdc_lld.o (symbol from plugin)
                                                  ./build/obj/hal_sdc.o (symbol from plugin)
sdc_lld_stop_clk                                  ./build/obj/hal_sdc_lld.o (symbol from plugin)
                                                  ./build/obj/hal_sdc.o (symbol from plugin)
sdc_lld_sync                                      /tmp/ch.elf.PrlmSi.ltrans0.ltrans.o
                                                  ./build/obj/hal_sdc_lld.o (symbol from plugin)
                                                  ./build/obj/hal_sdc.o (symbol from plugin)
sdc_lld_write                                     ./build/obj/hal_sdc_lld.o (symbol from plugin)
                                                  ./build/obj/hal_sdc.o (symbol from plugin)
sdc_lld_write_aligned                             ./build/obj/hal_sdc_lld.o (symbol from plugin)
sduConfigureHookI                                 ./build/obj/hal_serial_usb.o (symbol from plugin)
                                                  ./build/obj/usbcfg.o (symbol from plugin)
sduControl                                        ./build/obj/hal_serial_usb.o (symbol from plugin)
sduDataReceived                                   ./build/obj/hal_serial_usb.o (symbol from plugin)
                                                  ./build/obj/usbcfg.o (symbol from plugin)
sduDataTransmitted                                ./build/obj/hal_serial_usb.o (symbol from plugin)
                                                  ./build/obj/usbcfg.o (symbol from plugin)
sduInit                                           ./build/obj/hal_serial_usb.o (symbol from plugin)
                                                  ./build/obj/hal.o (symbol from plugin)
sduInterruptTransmitted                           ./build/obj/hal_serial_usb.o (symbol from plugin)
                                                  ./build/obj/usbcfg.o (symbol from plugin)
sduObjectInit                                     ./build/obj/hal_serial_usb.o (symbol from plugin)
                                                  ./build/obj/main.o (symbol from plugin)
sduRequestsHook                                   /tmp/ch.elf.PrlmSi.ltrans0.ltrans.o
                                                  ./build/obj/hal_serial_usb.o (symbol from plugin)
                                                  /tmp/ch.elf.PrlmSi.ltrans1.ltrans.o
                                                  ./build/obj/usbcfg.o (symbol from plugin)
sduSOFHookI                                       ./build/obj/hal_serial_usb.o (symbol from plugin)
                                                  ./build/obj/usbcfg.o (symbol from plugin)
sduStart                                          ./build/obj/hal_serial_usb.o (symbol from plugin)
                                                  ./build/obj/main.o (symbol from plugin)
sduStop                                           ./build/obj/hal_serial_usb.o (symbol from plugin)
sduSuspendHookI                                   ./build/obj/hal_serial_usb.o (symbol from plugin)
                                                  ./build/obj/usbcfg.o (symbol from plugin)
sduWakeupHookI                                    ./build/obj/hal_serial_usb.o (symbol from plugin)
                                                  ./build/obj/usbcfg.o (symbol from plugin)
sdu_start_receive.isra.0                          /tmp/ch.elf.PrlmSi.ltrans1.ltrans.o
                                                  /tmp/ch.elf.PrlmSi.ltrans0.ltrans.o
sem1.lto_priv.0                                   /tmp/ch.elf.PrlmSi.ltrans0.ltrans.o
                                                  /tmp/ch.elf.PrlmSi.ltrans1.ltrans.o
sem1.lto_priv.1                                   /tmp/ch.elf.PrlmSi.ltrans0.ltrans.o
                                                  /tmp/ch.elf.PrlmSi.ltrans1.ltrans.o
serusbcfg                                         ./build/obj/usbcfg.o (symbol from plugin)
                                                  ./build/obj/main.o (symbol from plugin)
shell.c.b809e4d7                                  /tmp/cc4LIRGU.debug.temp.o
                                                  /tmp/ch.elf.PrlmSi.ltrans1.ltrans.o
                                                  /tmp/ch.elf.PrlmSi.ltrans0.ltrans.o
shellExit                                         ./build/obj/shell.o (symbol from plugin)
                                                  ./build/obj/shell_cmd.o (symbol from plugin)
shellGetLine                                      ./build/obj/shell.o (symbol from plugin)
shellInit                                         ./build/obj/shell.o (symbol from plugin)
                                                  ./build/obj/main.o (symbol from plugin)
shellThread                                       /tmp/ch.elf.PrlmSi.ltrans0.ltrans.o
                                                  ./build/obj/shell.o (symbol from plugin)
                                                  /tmp/ch.elf.PrlmSi.ltrans1.ltrans.o
                                                  ./build/obj/main.o (symbol from plugin)
shell_cmd.c.bd9e9e37                              /tmp/ccrDQ5b5.debug.temp.o
                                                  /tmp/ch.elf.PrlmSi.ltrans0.ltrans.o
shell_local_commands                              ./build/obj/shell_cmd.o (symbol from plugin)
                                                  ./build/obj/shell.o (symbol from plugin)
shell_terminated                                  /tmp/ch.elf.PrlmSi.ltrans0.ltrans.o
                                                  ./build/obj/shell.o (symbol from plugin)
                                                  /tmp/ch.elf.PrlmSi.ltrans1.ltrans.o
                                                  ./build/obj/main.o (symbol from plugin)
sof_handler.lto_priv.0                            /tmp/ch.elf.PrlmSi.ltrans0.ltrans.o
                                                  /tmp/ch.elf.PrlmSi.ltrans1.ltrans.o
stGetAlarm                                        ./build/obj/hal_st.o (symbol from plugin)
stGetCounter                                      ./build/obj/hal_st.o (symbol from plugin)
                                                  ./build/obj/rt_test_sequence_012.o (symbol from plugin)
                                                  ./build/obj/rt_test_sequence_006.o (symbol from plugin)
                                                  ./build/obj/rt_test_sequence_005.o (symbol from plugin)
                                                  ./build/obj/rt_test_sequence_004.o (symbol from plugin)
                                                  ./build/obj/rt_test_sequence_003.o (symbol from plugin)
                                                  ./build/obj/rt_test_root.o (symbol from plugin)
                                                  ./build/obj/ch_test.o (symbol from plugin)
                                                  ./build/obj/shell_cmd.o (symbol from plugin)
                                                  ./build/obj/chthreads.o (symbol from plugin)
                                                  ./build/obj/chinstances.o (symbol from plugin)
                                                  ./build/obj/chvt.o (symbol from plugin)
stInit                                            ./build/obj/hal_st.o (symbol from plugin)
                                                  ./build/obj/hal.o (symbol from plugin)
stIsAlarmActive                                   ./build/obj/hal_st.o (symbol from plugin)
stSetAlarm                                        ./build/obj/hal_st.o (symbol from plugin)
                                                  ./build/obj/chvt.o (symbol from plugin)
stStartAlarm                                      ./build/obj/hal_st.o (symbol from plugin)
                                                  ./build/obj/chvt.o (symbol from plugin)
stStopAlarm                                       ./build/obj/hal_st.o (symbol from plugin)
                                                  ./build/obj/chvt.o (symbol from plugin)
st_lld_init                                       ./build/obj/hal_st_lld.o (symbol from plugin)
                                                  ./build/obj/hal_st.o (symbol from plugin)
st_lld_serve_interrupt                            ./build/obj/hal_st_lld.o (symbol from plugin)
stm32_clock_init                                  ./build/obj/hal_lld.o (symbol from plugin)
                                                  ./build/obj/board.o (symbol from plugin)
stm32_dma.c.ec667b1c                              /tmp/ccZvYFDc.debug.temp.o
                                                  /tmp/ch.elf.PrlmSi.ltrans1.ltrans.o
                                                  /tmp/ch.elf.PrlmSi.ltrans0.ltrans.o
stm32_isr.c.a27a2cc7                              /tmp/ccrDuezY.debug.temp.o
                                                  /tmp/ch.elf.PrlmSi.ltrans1.ltrans.o
strchr                                            /usr/lib/gcc/arm-none-eabi/10.3.1/../../../arm-none-eabi/lib/thumb/v7-m/nofp/libg.a(lib_a-strchr.o)
                                                  /tmp/ch.elf.PrlmSi.ltrans1.ltrans.o
                                                  /tmp/ch.elf.PrlmSi.ltrans0.ltrans.o
strcmp                                            /usr/lib/gcc/arm-none-eabi/10.3.1/../../../arm-none-eabi/lib/thumb/v7-m/nofp/libg.a(lib_a-strcmp.o)
                                                  /tmp/ch.elf.PrlmSi.ltrans1.ltrans.o
                                                  /tmp/ch.elf.PrlmSi.ltrans0.ltrans.o
strcpy                                            /usr/lib/gcc/arm-none-eabi/10.3.1/../../../arm-none-eabi/lib/thumb/v7-m/nofp/libg.a(lib_a-strcpy.o)
                                                  /tmp/ch.elf.PrlmSi.ltrans1.ltrans.o
strlen                                            /usr/lib/gcc/arm-none-eabi/10.3.1/../../../arm-none-eabi/lib/thumb/v7-m/nofp/libg.a(lib_a-strlen-stub.o)
                                                  /tmp/ch.elf.PrlmSi.ltrans1.ltrans.o
strncmp                                           /usr/lib/gcc/arm-none-eabi/10.3.1/../../../arm-none-eabi/lib/thumb/v7-m/nofp/libg.a(lib_a-strncmp.o)
                                                  /tmp/ch.elf.PrlmSi.ltrans0.ltrans.o
strpbrk                                           /usr/lib/gcc/arm-none-eabi/10.3.1/../../../arm-none-eabi/lib/thumb/v7-m/nofp/libg.a(lib_a-strpbrk.o)
                                                  /tmp/ch.elf.PrlmSi.ltrans0.ltrans.o
strspn                                            /usr/lib/gcc/arm-none-eabi/10.3.1/../../../arm-none-eabi/lib/thumb/v7-m/nofp/libg.a(lib_a-strspn.o)
                                                  /tmp/ch.elf.PrlmSi.ltrans0.ltrans.o
test_buffer                                       /tmp/ch.elf.PrlmSi.ltrans0.ltrans.o
                                                  ./build/obj/rt_test_root.o (symbol from plugin)
                                                  /tmp/ch.elf.PrlmSi.ltrans1.ltrans.o
                                                  ./build/obj/rt_test_sequence_011.o (symbol from plugin)
test_emit_token                                   ./build/obj/ch_test.o (symbol from plugin)
                                                  ./build/obj/oslib_test_sequence_006.o (symbol from plugin)
                                                  ./build/obj/oslib_test_sequence_005.o (symbol from plugin)
                                                  ./build/obj/oslib_test_sequence_004.o (symbol from plugin)
                                                  ./build/obj/oslib_test_sequence_002.o (symbol from plugin)
                                                  ./build/obj/rt_test_sequence_011.o (symbol from plugin)
                                                  ./build/obj/rt_test_sequence_010.o (symbol from plugin)
                                                  ./build/obj/rt_test_sequence_009.o (symbol from plugin)
                                                  ./build/obj/rt_test_sequence_008.o (symbol from plugin)
                                                  ./build/obj/rt_test_sequence_007.o (symbol from plugin)
                                                  ./build/obj/rt_test_sequence_006.o (symbol from plugin)
                                                  ./build/obj/rt_test_sequence_005.o (symbol from plugin)
test_execute_inner.isra.0                         /tmp/ch.elf.PrlmSi.ltrans1.ltrans.o
                                                  /tmp/ch.elf.PrlmSi.ltrans0.ltrans.o
test_execute_putchar                              ./build/obj/ch_test.o (symbol from plugin)
test_execute_stream                               ./build/obj/ch_test.o (symbol from plugin)
                                                  ./build/obj/shell_cmd.o (symbol from plugin)
test_printf                                       /tmp/ch.elf.PrlmSi.ltrans0.ltrans.o
                                                  ./build/obj/ch_test_printf.o (symbol from plugin)
                                                  /tmp/ch.elf.PrlmSi.ltrans1.ltrans.o
                                                  ./build/obj/oslib_test_sequence_001.o (symbol from plugin)
                                                  ./build/obj/rt_test_sequence_012.o (symbol from plugin)
                                                  ./build/obj/rt_test_sequence_001.o (symbol from plugin)
                                                  ./build/obj/ch_test.o (symbol from plugin)
test_putchar                                      ./build/obj/ch_test_printf.o (symbol from plugin)
                                                  ./build/obj/ch_test.o (symbol from plugin)
test_terminate_threads                            ./build/obj/rt_test_root.o (symbol from plugin)
                                                  ./build/obj/rt_test_sequence_012.o (symbol from plugin)
test_vprintf                                      ./build/obj/ch_test_printf.o (symbol from plugin)
test_wait_threads                                 ./build/obj/rt_test_root.o (symbol from plugin)
                                                  ./build/obj/rt_test_sequence_012.o (symbol from plugin)
                                                  ./build/obj/rt_test_sequence_011.o (symbol from plugin)
                                                  ./build/obj/rt_test_sequence_010.o (symbol from plugin)
                                                  ./build/obj/rt_test_sequence_009.o (symbol from plugin)
                                                  ./build/obj/rt_test_sequence_008.o (symbol from plugin)
                                                  ./build/obj/rt_test_sequence_007.o (symbol from plugin)
                                                  ./build/obj/rt_test_sequence_006.o (symbol from plugin)
                                                  ./build/obj/rt_test_sequence_005.o (symbol from plugin)
test_wait_tick                                    /tmp/ch.elf.PrlmSi.ltrans0.ltrans.o
                                                  ./build/obj/rt_test_root.o (symbol from plugin)
                                                  /tmp/ch.elf.PrlmSi.ltrans1.ltrans.o
                                                  ./build/obj/rt_test_sequence_012.o (symbol from plugin)
                                                  ./build/obj/rt_test_sequence_010.o (symbol from plugin)
                                                  ./build/obj/rt_test_sequence_007.o (symbol from plugin)
                                                  ./build/obj/rt_test_sequence_004.o (symbol from plugin)
threads                                           /tmp/ch.elf.PrlmSi.ltrans0.ltrans.o
                                                  ./build/obj/rt_test_root.o (symbol from plugin)
                                                  /tmp/ch.elf.PrlmSi.ltrans1.ltrans.o
                                                  ./build/obj/rt_test_sequence_012.o (symbol from plugin)
                                                  ./build/obj/rt_test_sequence_011.o (symbol from plugin)
                                                  ./build/obj/rt_test_sequence_010.o (symbol from plugin)
                                                  ./build/obj/rt_test_sequence_009.o (symbol from plugin)
                                                  ./build/obj/rt_test_sequence_008.o (symbol from plugin)
                                                  ./build/obj/rt_test_sequence_007.o (symbol from plugin)
                                                  ./build/obj/rt_test_sequence_006.o (symbol from plugin)
                                                  ./build/obj/rt_test_sequence_005.o (symbol from plugin)
tmo.lto_priv.0                                    /tmp/ch.elf.PrlmSi.ltrans0.ltrans.o
                                                  /tmp/ch.elf.PrlmSi.ltrans1.ltrans.o
uc850.lto_priv.0                                  /tmp/ch.elf.PrlmSi.ltrans0.ltrans.o
                                                  /tmp/ch.elf.PrlmSi.ltrans1.ltrans.o
usbDisableEndpointsI                              ./build/obj/hal_usb.o (symbol from plugin)
usbInit                                           ./build/obj/hal_usb.o (symbol from plugin)
                                                  ./build/obj/hal.o (symbol from plugin)
usbInitEndpointI                                  ./build/obj/hal_usb.o (symbol from plugin)
                                                  ./build/obj/usbcfg.o (symbol from plugin)
usbObjectInit                                     ./build/obj/hal_usb.o (symbol from plugin)
                                                  ./build/obj/hal_usb_lld.o (symbol from plugin)
usbStallReceiveI                                  ./build/obj/hal_usb.o (symbol from plugin)
usbStallTransmitI                                 ./build/obj/hal_usb.o (symbol from plugin)
usbStart                                          ./build/obj/hal_usb.o (symbol from plugin)
                                                  ./build/obj/main.o (symbol from plugin)
usbStartReceiveI                                  /tmp/ch.elf.PrlmSi.ltrans0.ltrans.o
                                                  ./build/obj/hal_usb.o (symbol from plugin)
                                                  /tmp/ch.elf.PrlmSi.ltrans1.ltrans.o
                                                  ./build/obj/hal_serial_usb.o (symbol from plugin)
usbStartTransmitI                                 ./build/obj/hal_usb.o (symbol from plugin)
                                                  ./build/obj/hal_serial_usb.o (symbol from plugin)
usbStop                                           ./build/obj/hal_usb.o (symbol from plugin)
usbWakeupHost                                     ./build/obj/hal_usb.o (symbol from plugin)
usb_event.lto_priv.0                              /tmp/ch.elf.PrlmSi.ltrans0.ltrans.o
                                                  /tmp/ch.elf.PrlmSi.ltrans1.ltrans.o
usb_lld_clear_in                                  ./build/obj/hal_usb_lld.o (symbol from plugin)
                                                  ./build/obj/hal_usb.o (symbol from plugin)
usb_lld_clear_out                                 ./build/obj/hal_usb_lld.o (symbol from plugin)
                                                  ./build/obj/hal_usb.o (symbol from plugin)
usb_lld_disable_endpoints                         ./build/obj/hal_usb_lld.o (symbol from plugin)
                                                  ./build/obj/hal_usb.o (symbol from plugin)
usb_lld_get_status_in                             ./build/obj/hal_usb_lld.o (symbol from plugin)
                                                  ./build/obj/hal_usb.o (symbol from plugin)
usb_lld_get_status_out                            ./build/obj/hal_usb_lld.o (symbol from plugin)
                                                  ./build/obj/hal_usb.o (symbol from plugin)
usb_lld_init                                      ./build/obj/hal_usb_lld.o (symbol from plugin)
                                                  ./build/obj/hal_usb.o (symbol from plugin)
usb_lld_init_endpoint                             /tmp/ch.elf.PrlmSi.ltrans0.ltrans.o
                                                  ./build/obj/hal_usb_lld.o (symbol from plugin)
                                                  /tmp/ch.elf.PrlmSi.ltrans1.ltrans.o
                                                  ./build/obj/hal_usb.o (symbol from plugin)
usb_lld_read_setup                                ./build/obj/hal_usb_lld.o (symbol from plugin)
                                                  ./build/obj/hal_usb.o (symbol from plugin)
usb_lld_reset                                     ./build/obj/hal_usb_lld.o (symbol from plugin)
                                                  ./build/obj/hal_usb.o (symbol from plugin)
usb_lld_set_address                               ./build/obj/hal_usb_lld.o (symbol from plugin)
                                                  ./build/obj/hal_usb.o (symbol from plugin)
usb_lld_stall_in                                  ./build/obj/hal_usb_lld.o (symbol from plugin)
                                                  ./build/obj/hal_usb.o (symbol from plugin)
usb_lld_stall_out                                 ./build/obj/hal_usb_lld.o (symbol from plugin)
                                                  ./build/obj/hal_usb.o (symbol from plugin)
usb_lld_start                                     ./build/obj/hal_usb_lld.o (symbol from plugin)
                                                  ./build/obj/hal_usb.o (symbol from plugin)
usb_lld_start_in                                  ./build/obj/hal_usb_lld.o (symbol from plugin)
                                                  ./build/obj/hal_usb.o (symbol from plugin)
usb_lld_start_out                                 ./build/obj/hal_usb_lld.o (symbol from plugin)
                                                  ./build/obj/hal_usb.o (symbol from plugin)
usb_lld_stop                                      ./build/obj/hal_usb_lld.o (symbol from plugin)
                                                  ./build/obj/hal_usb.o (symbol from plugin)
usbcfg                                            ./build/obj/usbcfg.o (symbol from plugin)
                                                  ./build/obj/main.o (symbol from plugin)
usbcfg.c.5ee3b478                                 /tmp/ccuevhAF.debug.temp.o
                                                  /tmp/ch.elf.PrlmSi.ltrans1.ltrans.o
                                                  /tmp/ch.elf.PrlmSi.ltrans0.ltrans.o
vt_enqueue.constprop.0                            /tmp/ch.elf.PrlmSi.ltrans1.ltrans.o
                                                  /tmp/ch.elf.PrlmSi.ltrans0.ltrans.o
vt_insert_first.constprop.0                       /tmp/ch.elf.PrlmSi.ltrans1.ltrans.o
                                                  /tmp/ch.elf.PrlmSi.ltrans0.ltrans.o
wa                                                /tmp/ch.elf.PrlmSi.ltrans0.ltrans.o
                                                  ./build/obj/rt_test_root.o (symbol from plugin)
                                                  ./build/obj/rt_test_sequence_012.o (symbol from plugin)
                                                  ./build/obj/rt_test_sequence_011.o (symbol from plugin)
                                                  ./build/obj/rt_test_sequence_010.o (symbol from plugin)
                                                  ./build/obj/rt_test_sequence_009.o (symbol from plugin)
                                                  ./build/obj/rt_test_sequence_008.o (symbol from plugin)
                                                  ./build/obj/rt_test_sequence_007.o (symbol from plugin)
                                                  ./build/obj/rt_test_sequence_006.o (symbol from plugin)
                                                  ./build/obj/rt_test_sequence_005.o (symbol from plugin)
